ARM GAS  C:\Users\chris\AppData\Local\Temp\ccCZa2Nc.s 			page 1


   1              		.syntax unified
   2              		.cpu cortex-m3
   3              		.fpu softvfp
   4              		.eabi_attribute 20, 1
   5              		.eabi_attribute 21, 1
   6              		.eabi_attribute 23, 3
   7              		.eabi_attribute 24, 1
   8              		.eabi_attribute 25, 1
   9              		.eabi_attribute 26, 1
  10              		.eabi_attribute 30, 1
  11              		.eabi_attribute 34, 1
  12              		.eabi_attribute 18, 4
  13              		.thumb
  14              		.syntax unified
  15              		.file	"main.c"
  16              		.text
  17              	.Ltext0:
  18              		.cfi_sections	.debug_frame
  19              		.section	.text.ISR_SPI,"ax",%progbits
  20              		.align	2
  21              		.global	ISR_SPI
  22              		.thumb
  23              		.thumb_func
  24              		.type	ISR_SPI, %function
  25              	ISR_SPI:
  26              	.LFB64:
  27              		.file 1 "main.c"
   1:main.c        **** /* ========================================
   2:main.c        ****  *
   3:main.c        ****  * Copyright YOUR COMPANY, THE YEAR
   4:main.c        ****  * All Rights Reserved
   5:main.c        ****  * UNPUBLISHED, LICENSED SOFTWARE.
   6:main.c        ****  *
   7:main.c        ****  * CONFIDENTIAL AND PROPRIETARY INFORMATION
   8:main.c        ****  * WHICH IS THE PROPERTY OF your company.
   9:main.c        **** 
  10:main.c        **** 
  11:main.c        ****  * OPS PUMPE 40% pwm
  12:main.c        ****  * ========================================
  13:main.c        **** */
  14:main.c        **** #include "project.h"
  15:main.c        **** #include <CyLib.h>
  16:main.c        **** #include <stdio.h>
  17:main.c        **** #include <stdlib.h>
  18:main.c        **** //#include "Motor.h"
  19:main.c        **** 
  20:main.c        **** #define LEFT 1u
  21:main.c        **** #define RIGHT 2u
  22:main.c        **** 
  23:main.c        **** volatile unsigned long turnSpeed = 3000;
  24:main.c        **** volatile unsigned long backTimer = 3000;
  25:main.c        **** volatile uint8_t sensor = 0;
  26:main.c        **** volatile uint8_t received = 0; //Varaible to store received data
  27:main.c        **** volatile uint8_t intFlag = 0; //Variable to indicate if there have been an interrupt
  28:main.c        **** volatile uint8_t speed = 50;
  29:main.c        **** volatile uint8_t forward = 1;
  30:main.c        **** volatile int16_t offsetADC = 0;
ARM GAS  C:\Users\chris\AppData\Local\Temp\ccCZa2Nc.s 			page 2


  31:main.c        **** 
  32:main.c        **** static uint8 sensorPushed = 0;
  33:main.c        **** 
  34:main.c        **** void decreaseSpeed(void);
  35:main.c        **** void increaseSpeed(void);
  36:main.c        **** void driveForwards(void);
  37:main.c        **** void driveBackwards(void);
  38:main.c        **** void stop(void);
  39:main.c        **** void turnRight(void);
  40:main.c        **** void turnLeft(void);
  41:main.c        **** 
  42:main.c        **** CY_ISR_PROTO(ISR_SPI); //Interrupt prototype
  43:main.c        **** CY_ISR(ISR_SPI) //Interrupt service routine
  44:main.c        **** {
  28              		.loc 1 44 0
  29              		.cfi_startproc
  30              		@ args = 0, pretend = 0, frame = 0
  31              		@ frame_needed = 0, uses_anonymous_args = 0
  32 0000 08B5     		push	{r3, lr}
  33              		.cfi_def_cfa_offset 8
  34              		.cfi_offset 3, -8
  35              		.cfi_offset 14, -4
  45:main.c        ****     received = SPI_Slave_ReadRxData(); //Storing the received data
  36              		.loc 1 45 0
  37 0002 FFF7FEFF 		bl	SPI_Slave_ReadRxData
  38              	.LVL0:
  39 0006 044B     		ldr	r3, .L3
  40 0008 1870     		strb	r0, [r3]
  46:main.c        ****     intFlag = 1; //Indicating that an interrupt has occurred
  41              		.loc 1 46 0
  42 000a 0122     		movs	r2, #1
  43 000c 5A70     		strb	r2, [r3, #1]
  47:main.c        ****     SPI_Slave_ClearRxBuffer(); //Clearing the RX buffer
  44              		.loc 1 47 0
  45 000e FFF7FEFF 		bl	SPI_Slave_ClearRxBuffer
  46              	.LVL1:
  48:main.c        ****     SPI_Slave_ClearFIFO(); //Clearing the FIFO register
  47              		.loc 1 48 0
  48 0012 FFF7FEFF 		bl	SPI_Slave_ClearFIFO
  49              	.LVL2:
  50 0016 08BD     		pop	{r3, pc}
  51              	.L4:
  52              		.align	2
  53              	.L3:
  54 0018 00000000 		.word	.LANCHOR0
  55              		.cfi_endproc
  56              	.LFE64:
  57              		.size	ISR_SPI, .-ISR_SPI
  58              		.section	.text.sensor_ISR,"ax",%progbits
  59              		.align	2
  60              		.global	sensor_ISR
  61              		.thumb
  62              		.thumb_func
  63              		.type	sensor_ISR, %function
  64              	sensor_ISR:
  65              	.LFB65:
  49:main.c        **** }
ARM GAS  C:\Users\chris\AppData\Local\Temp\ccCZa2Nc.s 			page 3


  50:main.c        **** 
  51:main.c        **** CY_ISR(sensor_ISR)
  52:main.c        **** {
  66              		.loc 1 52 0
  67              		.cfi_startproc
  68              		@ args = 0, pretend = 0, frame = 0
  69              		@ frame_needed = 0, uses_anonymous_args = 0
  70 0000 08B5     		push	{r3, lr}
  71              		.cfi_def_cfa_offset 8
  72              		.cfi_offset 3, -8
  73              		.cfi_offset 14, -4
  53:main.c        ****     if(!sensor)
  74              		.loc 1 53 0
  75 0002 0D4B     		ldr	r3, .L9
  76 0004 9B78     		ldrb	r3, [r3, #2]	@ zero_extendqisi2
  77 0006 13F0FF0F 		tst	r3, #255
  78 000a 12D1     		bne	.L6
  54:main.c        ****     {
  55:main.c        ****     sensor = Pin_1_Read();
  79              		.loc 1 55 0
  80 000c FFF7FEFF 		bl	Pin_1_Read
  81              	.LVL3:
  82 0010 094B     		ldr	r3, .L9
  83 0012 9870     		strb	r0, [r3, #2]
  56:main.c        ****     UART_1_PutString("Flag bliver sat. Pin1\r\n");
  84              		.loc 1 56 0
  85 0014 0948     		ldr	r0, .L9+4
  86 0016 FFF7FEFF 		bl	UART_1_PutString
  87              	.LVL4:
  57:main.c        ****      if(Pin_1_INTSTAT & (0x01 << Pin_1_SHIFT))
  88              		.loc 1 57 0
  89 001a 094B     		ldr	r3, .L9+8
  90 001c 1B78     		ldrb	r3, [r3]	@ zero_extendqisi2
  91 001e 13F0010F 		tst	r3, #1
  92 0022 03D0     		beq	.L7
  58:main.c        ****     {
  59:main.c        ****         sensorPushed = LEFT;
  93              		.loc 1 59 0
  94 0024 0122     		movs	r2, #1
  95 0026 044B     		ldr	r3, .L9
  96 0028 DA70     		strb	r2, [r3, #3]
  97 002a 02E0     		b	.L6
  98              	.L7:
  60:main.c        ****     }
  61:main.c        ****     else
  62:main.c        ****     {
  63:main.c        ****         sensorPushed = RIGHT;
  99              		.loc 1 63 0
 100 002c 0222     		movs	r2, #2
 101 002e 024B     		ldr	r3, .L9
 102 0030 DA70     		strb	r2, [r3, #3]
 103              	.L6:
  64:main.c        ****     }
  65:main.c        ****     }
  66:main.c        ****     
  67:main.c        ****      Pin_1_ClearInterrupt();
 104              		.loc 1 67 0
ARM GAS  C:\Users\chris\AppData\Local\Temp\ccCZa2Nc.s 			page 4


 105 0032 FFF7FEFF 		bl	Pin_1_ClearInterrupt
 106              	.LVL5:
 107 0036 08BD     		pop	{r3, pc}
 108              	.L10:
 109              		.align	2
 110              	.L9:
 111 0038 00000000 		.word	.LANCHOR0
 112 003c 00000000 		.word	.LC0
 113 0040 80450040 		.word	1073759616
 114              		.cfi_endproc
 115              	.LFE65:
 116              		.size	sensor_ISR, .-sensor_ISR
 117              		.section	.text.decreaseSpeed,"ax",%progbits
 118              		.align	2
 119              		.global	decreaseSpeed
 120              		.thumb
 121              		.thumb_func
 122              		.type	decreaseSpeed, %function
 123              	decreaseSpeed:
 124              	.LFB70:
  68:main.c        ****     
  69:main.c        **** }
  70:main.c        **** 
  71:main.c        **** CY_ISR_PROTO(ISR_UART_rx_handler);
  72:main.c        **** void handleByteReceived(uint8_t byteReceived);
  73:main.c        **** 
  74:main.c        **** 
  75:main.c        **** 
  76:main.c        **** CY_ISR(ISR_UART_rx_handler)
  77:main.c        **** {
  78:main.c        **** 	//Read char from RX buffer and react
  79:main.c        ****     uint8_t bytesToRead = UART_1_GetRxBufferSize();
  80:main.c        ****     while (bytesToRead > 0)
  81:main.c        ****     {
  82:main.c        ****         uint8_t byteReceived = UART_1_ReadRxData();
  83:main.c        ****         UART_1_WriteTxData(byteReceived); // echo back
  84:main.c        ****         
  85:main.c        ****         handleByteReceived(byteReceived);
  86:main.c        ****         
  87:main.c        ****         bytesToRead--;
  88:main.c        ****     }
  89:main.c        **** }
  90:main.c        **** 
  91:main.c        **** void handleByteReceived(uint8_t byteReceived)
  92:main.c        **** {
  93:main.c        ****     switch(byteReceived)
  94:main.c        ****     {
  95:main.c        ****         case 'q' :
  96:main.c        ****         {
  97:main.c        ****             decreaseSpeed();
  98:main.c        ****         }
  99:main.c        ****         break;
 100:main.c        ****         case 'w' :
 101:main.c        ****         {
 102:main.c        ****             increaseSpeed();
 103:main.c        ****         }
 104:main.c        ****         break;
ARM GAS  C:\Users\chris\AppData\Local\Temp\ccCZa2Nc.s 			page 5


 105:main.c        ****         case '1' :
 106:main.c        ****         {
 107:main.c        ****             driveForwards();
 108:main.c        ****         }
 109:main.c        ****         break;
 110:main.c        ****         case '2' :
 111:main.c        ****         {
 112:main.c        ****             driveBackwards();
 113:main.c        ****         }
 114:main.c        ****         break;
 115:main.c        ****         case '0' :
 116:main.c        ****         {
 117:main.c        ****             stop();
 118:main.c        ****             
 119:main.c        ****         }
 120:main.c        ****         break;
 121:main.c        ****           break;
 122:main.c        ****         case 'h' :
 123:main.c        ****         {
 124:main.c        ****             turnLeft();
 125:main.c        ****             
 126:main.c        ****         }
 127:main.c        ****         break;
 128:main.c        ****           break;
 129:main.c        ****         case 'v' :
 130:main.c        ****         {
 131:main.c        ****             turnRight();
 132:main.c        ****             
 133:main.c        ****         }
 134:main.c        ****         break;
 135:main.c        ****         default :
 136:main.c        ****         {
 137:main.c        ****             // nothing
 138:main.c        ****         }
 139:main.c        ****         break;
 140:main.c        ****     }
 141:main.c        **** }
 142:main.c        **** 
 143:main.c        **** void turnRight(void)
 144:main.c        **** {
 145:main.c        ****      UART_1_PutString("Turning right\r\n");
 146:main.c        ****     driveBackwards();
 147:main.c        ****     CyDelay(backTimer);
 148:main.c        ****     driveForwards();
 149:main.c        ****     PWM_M3_WriteCompare(speed);
 150:main.c        ****     PWM_M1_WriteCompare(0);
 151:main.c        ****     CyDelay(turnSpeed);
 152:main.c        ****     PWM_M1_WriteCompare(speed);
 153:main.c        **** }
 154:main.c        **** void turnLeft(void)
 155:main.c        **** {
 156:main.c        ****     UART_1_PutString("Turning left\r\n");
 157:main.c        ****     driveBackwards();
 158:main.c        ****     CyDelay(backTimer);
 159:main.c        ****     driveForwards();
 160:main.c        ****     PWM_M1_WriteCompare(speed);
 161:main.c        ****     PWM_M3_WriteCompare(0);
ARM GAS  C:\Users\chris\AppData\Local\Temp\ccCZa2Nc.s 			page 6


 162:main.c        ****     CyDelay(turnSpeed);
 163:main.c        ****     PWM_M3_WriteCompare(speed);
 164:main.c        **** }
 165:main.c        **** 
 166:main.c        **** void decreaseSpeed()
 167:main.c        **** {
 125              		.loc 1 167 0
 126              		.cfi_startproc
 127              		@ args = 0, pretend = 0, frame = 0
 128              		@ frame_needed = 0, uses_anonymous_args = 0
 129 0000 10B5     		push	{r4, lr}
 130              		.cfi_def_cfa_offset 8
 131              		.cfi_offset 4, -8
 132              		.cfi_offset 14, -4
 168:main.c        ****     UART_1_PutString("Decreasing speed\r\n");
 133              		.loc 1 168 0
 134 0002 1348     		ldr	r0, .L17
 135 0004 FFF7FEFF 		bl	UART_1_PutString
 136              	.LVL6:
 169:main.c        **** 
 170:main.c        **** 	if (speed <= 10)
 137              		.loc 1 170 0
 138 0008 124B     		ldr	r3, .L17+4
 139 000a 1B78     		ldrb	r3, [r3]	@ zero_extendqisi2
 140 000c DBB2     		uxtb	r3, r3
 141 000e 0A2B     		cmp	r3, #10
 142 0010 03D8     		bhi	.L12
 171:main.c        **** 	{
 172:main.c        **** 		speed = 0;
 143              		.loc 1 172 0
 144 0012 0022     		movs	r2, #0
 145 0014 0F4B     		ldr	r3, .L17+4
 146 0016 1A70     		strb	r2, [r3]
 147 0018 04E0     		b	.L13
 148              	.L12:
 173:main.c        **** 	}
 174:main.c        **** 	else
 175:main.c        **** 	{
 176:main.c        **** 		speed -= 10;
 149              		.loc 1 176 0
 150 001a 0E4A     		ldr	r2, .L17+4
 151 001c 1378     		ldrb	r3, [r2]	@ zero_extendqisi2
 152 001e 0A3B     		subs	r3, r3, #10
 153 0020 DBB2     		uxtb	r3, r3
 154 0022 1370     		strb	r3, [r2]
 155              	.L13:
 177:main.c        **** 	}
 178:main.c        **** 
 179:main.c        ****     if (forward == 1)
 156              		.loc 1 179 0
 157 0024 0B4B     		ldr	r3, .L17+4
 158 0026 5B78     		ldrb	r3, [r3, #1]	@ zero_extendqisi2
 159 0028 DBB2     		uxtb	r3, r3
 160 002a 012B     		cmp	r3, #1
 161 002c 07D1     		bne	.L14
 180:main.c        ****     {
 181:main.c        ****         PWM_M1_WriteCompare(speed);
ARM GAS  C:\Users\chris\AppData\Local\Temp\ccCZa2Nc.s 			page 7


 162              		.loc 1 181 0
 163 002e 094C     		ldr	r4, .L17+4
 164 0030 2078     		ldrb	r0, [r4]	@ zero_extendqisi2
 165 0032 FFF7FEFF 		bl	PWM_M1_WriteCompare
 166              	.LVL7:
 182:main.c        ****         PWM_M3_WriteCompare(speed);
 167              		.loc 1 182 0
 168 0036 2078     		ldrb	r0, [r4]	@ zero_extendqisi2
 169 0038 FFF7FEFF 		bl	PWM_M3_WriteCompare
 170              	.LVL8:
 171 003c 10BD     		pop	{r4, pc}
 172              	.L14:
 183:main.c        ****     }
 184:main.c        ****     else
 185:main.c        ****     {
 186:main.c        ****         PWM_M2_WriteCompare(speed);
 173              		.loc 1 186 0
 174 003e 054C     		ldr	r4, .L17+4
 175 0040 2078     		ldrb	r0, [r4]	@ zero_extendqisi2
 176 0042 FFF7FEFF 		bl	PWM_M2_WriteCompare
 177              	.LVL9:
 187:main.c        ****         PWM_M4_WriteCompare(speed);//Increase compare variable to increase speed
 178              		.loc 1 187 0
 179 0046 2078     		ldrb	r0, [r4]	@ zero_extendqisi2
 180 0048 FFF7FEFF 		bl	PWM_M4_WriteCompare
 181              	.LVL10:
 182 004c 10BD     		pop	{r4, pc}
 183              	.L18:
 184 004e 00BF     		.align	2
 185              	.L17:
 186 0050 18000000 		.word	.LC1
 187 0054 00000000 		.word	.LANCHOR1
 188              		.cfi_endproc
 189              	.LFE70:
 190              		.size	decreaseSpeed, .-decreaseSpeed
 191              		.section	.text.increaseSpeed,"ax",%progbits
 192              		.align	2
 193              		.global	increaseSpeed
 194              		.thumb
 195              		.thumb_func
 196              		.type	increaseSpeed, %function
 197              	increaseSpeed:
 198              	.LFB71:
 188:main.c        ****     }
 189:main.c        **** }
 190:main.c        **** 
 191:main.c        **** void increaseSpeed()
 192:main.c        **** {
 199              		.loc 1 192 0
 200              		.cfi_startproc
 201              		@ args = 0, pretend = 0, frame = 0
 202              		@ frame_needed = 0, uses_anonymous_args = 0
 203 0000 10B5     		push	{r4, lr}
 204              		.cfi_def_cfa_offset 8
 205              		.cfi_offset 4, -8
 206              		.cfi_offset 14, -4
 193:main.c        ****     UART_1_PutString("Increasing speed\r\n");
ARM GAS  C:\Users\chris\AppData\Local\Temp\ccCZa2Nc.s 			page 8


 207              		.loc 1 193 0
 208 0002 1248     		ldr	r0, .L24
 209 0004 FFF7FEFF 		bl	UART_1_PutString
 210              	.LVL11:
 194:main.c        **** 	speed = speed + 10;
 211              		.loc 1 194 0
 212 0008 114A     		ldr	r2, .L24+4
 213 000a 1378     		ldrb	r3, [r2]	@ zero_extendqisi2
 214 000c 0A33     		adds	r3, r3, #10
 215 000e DBB2     		uxtb	r3, r3
 216 0010 1370     		strb	r3, [r2]
 195:main.c        **** 	if (speed > 100)
 217              		.loc 1 195 0
 218 0012 1378     		ldrb	r3, [r2]	@ zero_extendqisi2
 219 0014 DBB2     		uxtb	r3, r3
 220 0016 642B     		cmp	r3, #100
 221 0018 02D9     		bls	.L20
 196:main.c        **** 	{
 197:main.c        **** 		speed = 100;
 222              		.loc 1 197 0
 223 001a 6422     		movs	r2, #100
 224 001c 0C4B     		ldr	r3, .L24+4
 225 001e 1A70     		strb	r2, [r3]
 226              	.L20:
 198:main.c        **** 	}
 199:main.c        ****     if (forward == 1)
 227              		.loc 1 199 0
 228 0020 0B4B     		ldr	r3, .L24+4
 229 0022 5B78     		ldrb	r3, [r3, #1]	@ zero_extendqisi2
 230 0024 DBB2     		uxtb	r3, r3
 231 0026 012B     		cmp	r3, #1
 232 0028 07D1     		bne	.L21
 200:main.c        ****     {
 201:main.c        ****         PWM_M3_WriteCompare(speed);
 233              		.loc 1 201 0
 234 002a 094C     		ldr	r4, .L24+4
 235 002c 2078     		ldrb	r0, [r4]	@ zero_extendqisi2
 236 002e FFF7FEFF 		bl	PWM_M3_WriteCompare
 237              	.LVL12:
 202:main.c        ****         PWM_M1_WriteCompare(speed);    
 238              		.loc 1 202 0
 239 0032 2078     		ldrb	r0, [r4]	@ zero_extendqisi2
 240 0034 FFF7FEFF 		bl	PWM_M1_WriteCompare
 241              	.LVL13:
 242 0038 10BD     		pop	{r4, pc}
 243              	.L21:
 203:main.c        ****     }
 204:main.c        ****     else
 205:main.c        ****     {
 206:main.c        ****         PWM_M2_WriteCompare(speed);
 244              		.loc 1 206 0
 245 003a 054C     		ldr	r4, .L24+4
 246 003c 2078     		ldrb	r0, [r4]	@ zero_extendqisi2
 247 003e FFF7FEFF 		bl	PWM_M2_WriteCompare
 248              	.LVL14:
 207:main.c        ****         PWM_M4_WriteCompare(speed);//Increase compare variable to increase speed
 249              		.loc 1 207 0
ARM GAS  C:\Users\chris\AppData\Local\Temp\ccCZa2Nc.s 			page 9


 250 0042 2078     		ldrb	r0, [r4]	@ zero_extendqisi2
 251 0044 FFF7FEFF 		bl	PWM_M4_WriteCompare
 252              	.LVL15:
 253 0048 10BD     		pop	{r4, pc}
 254              	.L25:
 255 004a 00BF     		.align	2
 256              	.L24:
 257 004c 2C000000 		.word	.LC2
 258 0050 00000000 		.word	.LANCHOR1
 259              		.cfi_endproc
 260              	.LFE71:
 261              		.size	increaseSpeed, .-increaseSpeed
 262              		.section	.text.stop,"ax",%progbits
 263              		.align	2
 264              		.global	stop
 265              		.thumb
 266              		.thumb_func
 267              		.type	stop, %function
 268              	stop:
 269              	.LFB74:
 208:main.c        ****     }
 209:main.c        **** }
 210:main.c        **** 
 211:main.c        **** void driveForwards()
 212:main.c        **** {
 213:main.c        ****     UART_1_PutString("Set direction: forwards\r\n");
 214:main.c        ****     forward = 1;
 215:main.c        ****     stop();
 216:main.c        ****     //CyDelay(1000);
 217:main.c        ****     speed = 50;
 218:main.c        ****     PWM_M1_WriteCompare(speed);
 219:main.c        ****     PWM_M3_WriteCompare(speed);
 220:main.c        **** }
 221:main.c        **** 
 222:main.c        **** void driveBackwards()
 223:main.c        **** {
 224:main.c        ****     UART_1_PutString("Set direction: backwards\r\n");
 225:main.c        ****     forward = 0;
 226:main.c        ****     stop();
 227:main.c        ****     //CyDelay(1000);
 228:main.c        ****     speed = 50;
 229:main.c        ****     PWM_M2_WriteCompare(speed);
 230:main.c        ****     PWM_M4_WriteCompare(speed);
 231:main.c        **** }
 232:main.c        **** 
 233:main.c        **** void stop()
 234:main.c        **** {
 270              		.loc 1 234 0
 271              		.cfi_startproc
 272              		@ args = 0, pretend = 0, frame = 0
 273              		@ frame_needed = 0, uses_anonymous_args = 0
 274 0000 10B5     		push	{r4, lr}
 275              		.cfi_def_cfa_offset 8
 276              		.cfi_offset 4, -8
 277              		.cfi_offset 14, -4
 235:main.c        ****     UART_1_PutString("Stop\r\n");
 278              		.loc 1 235 0
ARM GAS  C:\Users\chris\AppData\Local\Temp\ccCZa2Nc.s 			page 10


 279 0002 0948     		ldr	r0, .L28
 280 0004 FFF7FEFF 		bl	UART_1_PutString
 281              	.LVL16:
 236:main.c        **** 	speed = 0;
 282              		.loc 1 236 0
 283 0008 084C     		ldr	r4, .L28+4
 284 000a 0023     		movs	r3, #0
 285 000c 2370     		strb	r3, [r4]
 237:main.c        **** 	PWM_M1_WriteCompare(speed);
 286              		.loc 1 237 0
 287 000e 2078     		ldrb	r0, [r4]	@ zero_extendqisi2
 288 0010 FFF7FEFF 		bl	PWM_M1_WriteCompare
 289              	.LVL17:
 238:main.c        ****     PWM_M2_WriteCompare(speed);
 290              		.loc 1 238 0
 291 0014 2078     		ldrb	r0, [r4]	@ zero_extendqisi2
 292 0016 FFF7FEFF 		bl	PWM_M2_WriteCompare
 293              	.LVL18:
 239:main.c        ****     PWM_M3_WriteCompare(speed);
 294              		.loc 1 239 0
 295 001a 2078     		ldrb	r0, [r4]	@ zero_extendqisi2
 296 001c FFF7FEFF 		bl	PWM_M3_WriteCompare
 297              	.LVL19:
 240:main.c        ****     PWM_M4_WriteCompare(speed);
 298              		.loc 1 240 0
 299 0020 2078     		ldrb	r0, [r4]	@ zero_extendqisi2
 300 0022 FFF7FEFF 		bl	PWM_M4_WriteCompare
 301              	.LVL20:
 302 0026 10BD     		pop	{r4, pc}
 303              	.L29:
 304              		.align	2
 305              	.L28:
 306 0028 40000000 		.word	.LC3
 307 002c 00000000 		.word	.LANCHOR1
 308              		.cfi_endproc
 309              	.LFE74:
 310              		.size	stop, .-stop
 311              		.section	.text.driveForwards,"ax",%progbits
 312              		.align	2
 313              		.global	driveForwards
 314              		.thumb
 315              		.thumb_func
 316              		.type	driveForwards, %function
 317              	driveForwards:
 318              	.LFB72:
 212:main.c        ****     UART_1_PutString("Set direction: forwards\r\n");
 319              		.loc 1 212 0
 320              		.cfi_startproc
 321              		@ args = 0, pretend = 0, frame = 0
 322              		@ frame_needed = 0, uses_anonymous_args = 0
 323 0000 10B5     		push	{r4, lr}
 324              		.cfi_def_cfa_offset 8
 325              		.cfi_offset 4, -8
 326              		.cfi_offset 14, -4
 213:main.c        ****     forward = 1;
 327              		.loc 1 213 0
 328 0002 0848     		ldr	r0, .L32
ARM GAS  C:\Users\chris\AppData\Local\Temp\ccCZa2Nc.s 			page 11


 329 0004 FFF7FEFF 		bl	UART_1_PutString
 330              	.LVL21:
 214:main.c        ****     stop();
 331              		.loc 1 214 0
 332 0008 074C     		ldr	r4, .L32+4
 333 000a 0123     		movs	r3, #1
 334 000c 6370     		strb	r3, [r4, #1]
 215:main.c        ****     //CyDelay(1000);
 335              		.loc 1 215 0
 336 000e FFF7FEFF 		bl	stop
 337              	.LVL22:
 217:main.c        ****     PWM_M1_WriteCompare(speed);
 338              		.loc 1 217 0
 339 0012 3223     		movs	r3, #50
 340 0014 2370     		strb	r3, [r4]
 218:main.c        ****     PWM_M3_WriteCompare(speed);
 341              		.loc 1 218 0
 342 0016 2078     		ldrb	r0, [r4]	@ zero_extendqisi2
 343 0018 FFF7FEFF 		bl	PWM_M1_WriteCompare
 344              	.LVL23:
 219:main.c        **** }
 345              		.loc 1 219 0
 346 001c 2078     		ldrb	r0, [r4]	@ zero_extendqisi2
 347 001e FFF7FEFF 		bl	PWM_M3_WriteCompare
 348              	.LVL24:
 349 0022 10BD     		pop	{r4, pc}
 350              	.L33:
 351              		.align	2
 352              	.L32:
 353 0024 48000000 		.word	.LC4
 354 0028 00000000 		.word	.LANCHOR1
 355              		.cfi_endproc
 356              	.LFE72:
 357              		.size	driveForwards, .-driveForwards
 358              		.section	.text.driveBackwards,"ax",%progbits
 359              		.align	2
 360              		.global	driveBackwards
 361              		.thumb
 362              		.thumb_func
 363              		.type	driveBackwards, %function
 364              	driveBackwards:
 365              	.LFB73:
 223:main.c        ****     UART_1_PutString("Set direction: backwards\r\n");
 366              		.loc 1 223 0
 367              		.cfi_startproc
 368              		@ args = 0, pretend = 0, frame = 0
 369              		@ frame_needed = 0, uses_anonymous_args = 0
 370 0000 10B5     		push	{r4, lr}
 371              		.cfi_def_cfa_offset 8
 372              		.cfi_offset 4, -8
 373              		.cfi_offset 14, -4
 224:main.c        ****     forward = 0;
 374              		.loc 1 224 0
 375 0002 0848     		ldr	r0, .L36
 376 0004 FFF7FEFF 		bl	UART_1_PutString
 377              	.LVL25:
 225:main.c        ****     stop();
ARM GAS  C:\Users\chris\AppData\Local\Temp\ccCZa2Nc.s 			page 12


 378              		.loc 1 225 0
 379 0008 074C     		ldr	r4, .L36+4
 380 000a 0023     		movs	r3, #0
 381 000c 6370     		strb	r3, [r4, #1]
 226:main.c        ****     //CyDelay(1000);
 382              		.loc 1 226 0
 383 000e FFF7FEFF 		bl	stop
 384              	.LVL26:
 228:main.c        ****     PWM_M2_WriteCompare(speed);
 385              		.loc 1 228 0
 386 0012 3223     		movs	r3, #50
 387 0014 2370     		strb	r3, [r4]
 229:main.c        ****     PWM_M4_WriteCompare(speed);
 388              		.loc 1 229 0
 389 0016 2078     		ldrb	r0, [r4]	@ zero_extendqisi2
 390 0018 FFF7FEFF 		bl	PWM_M2_WriteCompare
 391              	.LVL27:
 230:main.c        **** }
 392              		.loc 1 230 0
 393 001c 2078     		ldrb	r0, [r4]	@ zero_extendqisi2
 394 001e FFF7FEFF 		bl	PWM_M4_WriteCompare
 395              	.LVL28:
 396 0022 10BD     		pop	{r4, pc}
 397              	.L37:
 398              		.align	2
 399              	.L36:
 400 0024 64000000 		.word	.LC5
 401 0028 00000000 		.word	.LANCHOR1
 402              		.cfi_endproc
 403              	.LFE73:
 404              		.size	driveBackwards, .-driveBackwards
 405              		.section	.text.turnRight,"ax",%progbits
 406              		.align	2
 407              		.global	turnRight
 408              		.thumb
 409              		.thumb_func
 410              		.type	turnRight, %function
 411              	turnRight:
 412              	.LFB68:
 144:main.c        ****      UART_1_PutString("Turning right\r\n");
 413              		.loc 1 144 0
 414              		.cfi_startproc
 415              		@ args = 0, pretend = 0, frame = 0
 416              		@ frame_needed = 0, uses_anonymous_args = 0
 417 0000 10B5     		push	{r4, lr}
 418              		.cfi_def_cfa_offset 8
 419              		.cfi_offset 4, -8
 420              		.cfi_offset 14, -4
 145:main.c        ****     driveBackwards();
 421              		.loc 1 145 0
 422 0002 0C48     		ldr	r0, .L40
 423 0004 FFF7FEFF 		bl	UART_1_PutString
 424              	.LVL29:
 146:main.c        ****     CyDelay(backTimer);
 425              		.loc 1 146 0
 426 0008 FFF7FEFF 		bl	driveBackwards
 427              	.LVL30:
ARM GAS  C:\Users\chris\AppData\Local\Temp\ccCZa2Nc.s 			page 13


 147:main.c        ****     driveForwards();
 428              		.loc 1 147 0
 429 000c 0A4C     		ldr	r4, .L40+4
 430 000e 6068     		ldr	r0, [r4, #4]
 431 0010 FFF7FEFF 		bl	CyDelay
 432              	.LVL31:
 148:main.c        ****     PWM_M3_WriteCompare(speed);
 433              		.loc 1 148 0
 434 0014 FFF7FEFF 		bl	driveForwards
 435              	.LVL32:
 149:main.c        ****     PWM_M1_WriteCompare(0);
 436              		.loc 1 149 0
 437 0018 2078     		ldrb	r0, [r4]	@ zero_extendqisi2
 438 001a FFF7FEFF 		bl	PWM_M3_WriteCompare
 439              	.LVL33:
 150:main.c        ****     CyDelay(turnSpeed);
 440              		.loc 1 150 0
 441 001e 0020     		movs	r0, #0
 442 0020 FFF7FEFF 		bl	PWM_M1_WriteCompare
 443              	.LVL34:
 151:main.c        ****     PWM_M1_WriteCompare(speed);
 444              		.loc 1 151 0
 445 0024 A068     		ldr	r0, [r4, #8]
 446 0026 FFF7FEFF 		bl	CyDelay
 447              	.LVL35:
 152:main.c        **** }
 448              		.loc 1 152 0
 449 002a 2078     		ldrb	r0, [r4]	@ zero_extendqisi2
 450 002c FFF7FEFF 		bl	PWM_M1_WriteCompare
 451              	.LVL36:
 452 0030 10BD     		pop	{r4, pc}
 453              	.L41:
 454 0032 00BF     		.align	2
 455              	.L40:
 456 0034 80000000 		.word	.LC6
 457 0038 00000000 		.word	.LANCHOR1
 458              		.cfi_endproc
 459              	.LFE68:
 460              		.size	turnRight, .-turnRight
 461              		.section	.text.turnLeft,"ax",%progbits
 462              		.align	2
 463              		.global	turnLeft
 464              		.thumb
 465              		.thumb_func
 466              		.type	turnLeft, %function
 467              	turnLeft:
 468              	.LFB69:
 155:main.c        ****     UART_1_PutString("Turning left\r\n");
 469              		.loc 1 155 0
 470              		.cfi_startproc
 471              		@ args = 0, pretend = 0, frame = 0
 472              		@ frame_needed = 0, uses_anonymous_args = 0
 473 0000 10B5     		push	{r4, lr}
 474              		.cfi_def_cfa_offset 8
 475              		.cfi_offset 4, -8
 476              		.cfi_offset 14, -4
 156:main.c        ****     driveBackwards();
ARM GAS  C:\Users\chris\AppData\Local\Temp\ccCZa2Nc.s 			page 14


 477              		.loc 1 156 0
 478 0002 0C48     		ldr	r0, .L44
 479 0004 FFF7FEFF 		bl	UART_1_PutString
 480              	.LVL37:
 157:main.c        ****     CyDelay(backTimer);
 481              		.loc 1 157 0
 482 0008 FFF7FEFF 		bl	driveBackwards
 483              	.LVL38:
 158:main.c        ****     driveForwards();
 484              		.loc 1 158 0
 485 000c 0A4C     		ldr	r4, .L44+4
 486 000e 6068     		ldr	r0, [r4, #4]
 487 0010 FFF7FEFF 		bl	CyDelay
 488              	.LVL39:
 159:main.c        ****     PWM_M1_WriteCompare(speed);
 489              		.loc 1 159 0
 490 0014 FFF7FEFF 		bl	driveForwards
 491              	.LVL40:
 160:main.c        ****     PWM_M3_WriteCompare(0);
 492              		.loc 1 160 0
 493 0018 2078     		ldrb	r0, [r4]	@ zero_extendqisi2
 494 001a FFF7FEFF 		bl	PWM_M1_WriteCompare
 495              	.LVL41:
 161:main.c        ****     CyDelay(turnSpeed);
 496              		.loc 1 161 0
 497 001e 0020     		movs	r0, #0
 498 0020 FFF7FEFF 		bl	PWM_M3_WriteCompare
 499              	.LVL42:
 162:main.c        ****     PWM_M3_WriteCompare(speed);
 500              		.loc 1 162 0
 501 0024 A068     		ldr	r0, [r4, #8]
 502 0026 FFF7FEFF 		bl	CyDelay
 503              	.LVL43:
 163:main.c        **** }
 504              		.loc 1 163 0
 505 002a 2078     		ldrb	r0, [r4]	@ zero_extendqisi2
 506 002c FFF7FEFF 		bl	PWM_M3_WriteCompare
 507              	.LVL44:
 508 0030 10BD     		pop	{r4, pc}
 509              	.L45:
 510 0032 00BF     		.align	2
 511              	.L44:
 512 0034 90000000 		.word	.LC7
 513 0038 00000000 		.word	.LANCHOR1
 514              		.cfi_endproc
 515              	.LFE69:
 516              		.size	turnLeft, .-turnLeft
 517              		.section	.text.handleByteReceived,"ax",%progbits
 518              		.align	2
 519              		.global	handleByteReceived
 520              		.thumb
 521              		.thumb_func
 522              		.type	handleByteReceived, %function
 523              	handleByteReceived:
 524              	.LFB67:
  92:main.c        ****     switch(byteReceived)
 525              		.loc 1 92 0
ARM GAS  C:\Users\chris\AppData\Local\Temp\ccCZa2Nc.s 			page 15


 526              		.cfi_startproc
 527              		@ args = 0, pretend = 0, frame = 0
 528              		@ frame_needed = 0, uses_anonymous_args = 0
 529              	.LVL45:
 530 0000 08B5     		push	{r3, lr}
 531              		.cfi_def_cfa_offset 8
 532              		.cfi_offset 3, -8
 533              		.cfi_offset 14, -4
  93:main.c        ****     {
 534              		.loc 1 93 0
 535 0002 6828     		cmp	r0, #104
 536 0004 1CD0     		beq	.L48
 537 0006 06D8     		bhi	.L49
 538 0008 3128     		cmp	r0, #49
 539 000a 10D0     		beq	.L50
 540 000c 3228     		cmp	r0, #50
 541 000e 11D0     		beq	.L51
 542 0010 3028     		cmp	r0, #48
 543 0012 1AD1     		bne	.L46
 544 0014 11E0     		b	.L52
 545              	.L49:
 546 0016 7628     		cmp	r0, #118
 547 0018 15D0     		beq	.L53
 548 001a 7728     		cmp	r0, #119
 549 001c 04D0     		beq	.L54
 550 001e 7128     		cmp	r0, #113
 551 0020 13D1     		bne	.L46
  97:main.c        ****         }
 552              		.loc 1 97 0
 553 0022 FFF7FEFF 		bl	decreaseSpeed
 554              	.LVL46:
  99:main.c        ****         case 'w' :
 555              		.loc 1 99 0
 556 0026 08BD     		pop	{r3, pc}
 557              	.LVL47:
 558              	.L54:
 102:main.c        ****         }
 559              		.loc 1 102 0
 560 0028 FFF7FEFF 		bl	increaseSpeed
 561              	.LVL48:
 104:main.c        ****         case '1' :
 562              		.loc 1 104 0
 563 002c 08BD     		pop	{r3, pc}
 564              	.LVL49:
 565              	.L50:
 107:main.c        ****         }
 566              		.loc 1 107 0
 567 002e FFF7FEFF 		bl	driveForwards
 568              	.LVL50:
 109:main.c        ****         case '2' :
 569              		.loc 1 109 0
 570 0032 08BD     		pop	{r3, pc}
 571              	.LVL51:
 572              	.L51:
 112:main.c        ****         }
 573              		.loc 1 112 0
 574 0034 FFF7FEFF 		bl	driveBackwards
ARM GAS  C:\Users\chris\AppData\Local\Temp\ccCZa2Nc.s 			page 16


 575              	.LVL52:
 114:main.c        ****         case '0' :
 576              		.loc 1 114 0
 577 0038 08BD     		pop	{r3, pc}
 578              	.LVL53:
 579              	.L52:
 117:main.c        ****             
 580              		.loc 1 117 0
 581 003a FFF7FEFF 		bl	stop
 582              	.LVL54:
 120:main.c        ****           break;
 583              		.loc 1 120 0
 584 003e 08BD     		pop	{r3, pc}
 585              	.LVL55:
 586              	.L48:
 124:main.c        ****             
 587              		.loc 1 124 0
 588 0040 FFF7FEFF 		bl	turnLeft
 589              	.LVL56:
 127:main.c        ****           break;
 590              		.loc 1 127 0
 591 0044 08BD     		pop	{r3, pc}
 592              	.LVL57:
 593              	.L53:
 131:main.c        ****             
 594              		.loc 1 131 0
 595 0046 FFF7FEFF 		bl	turnRight
 596              	.LVL58:
 597              	.L46:
 598 004a 08BD     		pop	{r3, pc}
 599              		.cfi_endproc
 600              	.LFE67:
 601              		.size	handleByteReceived, .-handleByteReceived
 602              		.section	.text.ISR_UART_rx_handler,"ax",%progbits
 603              		.align	2
 604              		.global	ISR_UART_rx_handler
 605              		.thumb
 606              		.thumb_func
 607              		.type	ISR_UART_rx_handler, %function
 608              	ISR_UART_rx_handler:
 609              	.LFB66:
  77:main.c        **** 	//Read char from RX buffer and react
 610              		.loc 1 77 0
 611              		.cfi_startproc
 612              		@ args = 0, pretend = 0, frame = 0
 613              		@ frame_needed = 0, uses_anonymous_args = 0
 614 0000 38B5     		push	{r3, r4, r5, lr}
 615              		.cfi_def_cfa_offset 16
 616              		.cfi_offset 3, -16
 617              		.cfi_offset 4, -12
 618              		.cfi_offset 5, -8
 619              		.cfi_offset 14, -4
  79:main.c        ****     while (bytesToRead > 0)
 620              		.loc 1 79 0
 621 0002 FFF7FEFF 		bl	UART_1_GetRxBufferSize
 622              	.LVL59:
 623 0006 0446     		mov	r4, r0
ARM GAS  C:\Users\chris\AppData\Local\Temp\ccCZa2Nc.s 			page 17


 624              	.LVL60:
  80:main.c        ****     {
 625              		.loc 1 80 0
 626 0008 09E0     		b	.L58
 627              	.L59:
 628              	.LBB2:
  82:main.c        ****         UART_1_WriteTxData(byteReceived); // echo back
 629              		.loc 1 82 0
 630 000a FFF7FEFF 		bl	UART_1_ReadRxData
 631              	.LVL61:
 632 000e 0546     		mov	r5, r0
 633              	.LVL62:
  83:main.c        ****         
 634              		.loc 1 83 0
 635 0010 FFF7FEFF 		bl	UART_1_WriteTxData
 636              	.LVL63:
  85:main.c        ****         
 637              		.loc 1 85 0
 638 0014 2846     		mov	r0, r5
 639 0016 FFF7FEFF 		bl	handleByteReceived
 640              	.LVL64:
  87:main.c        ****     }
 641              		.loc 1 87 0
 642 001a 013C     		subs	r4, r4, #1
 643              	.LVL65:
 644 001c E4B2     		uxtb	r4, r4
 645              	.LVL66:
 646              	.L58:
 647              	.LBE2:
  80:main.c        ****     {
 648              		.loc 1 80 0
 649 001e 002C     		cmp	r4, #0
 650 0020 F3D1     		bne	.L59
  89:main.c        **** 
 651              		.loc 1 89 0
 652 0022 38BD     		pop	{r3, r4, r5, pc}
 653              		.cfi_endproc
 654              	.LFE66:
 655              		.size	ISR_UART_rx_handler, .-ISR_UART_rx_handler
 656              		.global	__aeabi_i2d
 657              		.global	__aeabi_dsub
 658              		.global	__aeabi_ddiv
 659              		.global	__aeabi_d2f
 660              		.global	__aeabi_fcmplt
 661              		.section	.text.main,"ax",%progbits
 662              		.align	2
 663              		.global	main
 664              		.thumb
 665              		.thumb_func
 666              		.type	main, %function
 667              	main:
 668              	.LFB75:
 241:main.c        **** }
 242:main.c        **** 
 243:main.c        **** int main(void)
 244:main.c        **** {
 669              		.loc 1 244 0
ARM GAS  C:\Users\chris\AppData\Local\Temp\ccCZa2Nc.s 			page 18


 670              		.cfi_startproc
 671              		@ args = 0, pretend = 0, frame = 0
 672              		@ frame_needed = 0, uses_anonymous_args = 0
 673 0000 10B5     		push	{r4, lr}
 674              		.cfi_def_cfa_offset 8
 675              		.cfi_offset 4, -8
 676              		.cfi_offset 14, -4
 245:main.c        ****     CyGlobalIntEnable; /* Enable global interrupts. */
 677              		.loc 1 245 0
 678              		.syntax unified
 679              	@ 245 "main.c" 1
 680 0002 62B6     		CPSIE   i
 681              	@ 0 "" 2
 246:main.c        ****     /* Place your initialization/startup code here (e.g. MyInst_Start()) */
 247:main.c        ****     isr_uart_rx_StartEx(ISR_UART_rx_handler);
 682              		.loc 1 247 0
 683              		.thumb
 684              		.syntax unified
 685 0004 3A48     		ldr	r0, .L69+16
 686 0006 FFF7FEFF 		bl	isr_uart_rx_StartEx
 687              	.LVL67:
 248:main.c        ****     isr_1_StartEx(sensor_ISR);
 688              		.loc 1 248 0
 689 000a 3A48     		ldr	r0, .L69+20
 690 000c FFF7FEFF 		bl	isr_1_StartEx
 691              	.LVL68:
 249:main.c        ****     ISR_SPI_StartEx(ISR_SPI);
 692              		.loc 1 249 0
 693 0010 3948     		ldr	r0, .L69+24
 694 0012 FFF7FEFF 		bl	ISR_SPI_StartEx
 695              	.LVL69:
 250:main.c        ****     UART_1_Start();
 696              		.loc 1 250 0
 697 0016 FFF7FEFF 		bl	UART_1_Start
 698              	.LVL70:
 251:main.c        ****     SPI_Slave_Start();
 699              		.loc 1 251 0
 700 001a FFF7FEFF 		bl	SPI_Slave_Start
 701              	.LVL71:
 252:main.c        ****     ADC_SAR_1_Start();
 702              		.loc 1 252 0
 703 001e FFF7FEFF 		bl	ADC_SAR_1_Start
 704              	.LVL72:
 253:main.c        ****     ADC_SAR_1_StartConvert();
 705              		.loc 1 253 0
 706 0022 FFF7FEFF 		bl	ADC_SAR_1_StartConvert
 707              	.LVL73:
 254:main.c        ****     PWM_M1_Start();    //PWM Motor1 (1hjul)
 708              		.loc 1 254 0
 709 0026 FFF7FEFF 		bl	PWM_M1_Start
 710              	.LVL74:
 255:main.c        ****     PWM_M2_Start();    //PWM Motor1 (1hjul)
 711              		.loc 1 255 0
 712 002a FFF7FEFF 		bl	PWM_M2_Start
 713              	.LVL75:
 256:main.c        ****     PWM_M3_Start();   //PWM Motor2 (2jhul)
 714              		.loc 1 256 0
ARM GAS  C:\Users\chris\AppData\Local\Temp\ccCZa2Nc.s 			page 19


 715 002e FFF7FEFF 		bl	PWM_M3_Start
 716              	.LVL76:
 257:main.c        ****     PWM_M4_Start();   //PWM Motor2 (2hjul)
 717              		.loc 1 257 0
 718 0032 FFF7FEFF 		bl	PWM_M4_Start
 719              	.LVL77:
 258:main.c        ****   
 259:main.c        ****     
 260:main.c        ****     
 261:main.c        ****     
 262:main.c        ****     UART_1_PutString("DC-Motor-PWM application started\r\n");
 720              		.loc 1 262 0
 721 0036 3148     		ldr	r0, .L69+28
 722 0038 FFF7FEFF 		bl	UART_1_PutString
 723              	.LVL78:
 263:main.c        ****     UART_1_PutString("0: Stop\r\n");
 724              		.loc 1 263 0
 725 003c 3048     		ldr	r0, .L69+32
 726 003e FFF7FEFF 		bl	UART_1_PutString
 727              	.LVL79:
 264:main.c        ****     UART_1_PutString("1: Drive forwards\r\n");
 728              		.loc 1 264 0
 729 0042 3048     		ldr	r0, .L69+36
 730 0044 FFF7FEFF 		bl	UART_1_PutString
 731              	.LVL80:
 265:main.c        ****     UART_1_PutString("2: Drive backwards\r\n");
 732              		.loc 1 265 0
 733 0048 2F48     		ldr	r0, .L69+40
 734 004a FFF7FEFF 		bl	UART_1_PutString
 735              	.LVL81:
 266:main.c        ****     UART_1_PutString("q: Decrease speed\r\n");
 736              		.loc 1 266 0
 737 004e 2F48     		ldr	r0, .L69+44
 738 0050 FFF7FEFF 		bl	UART_1_PutString
 739              	.LVL82:
 267:main.c        ****     UART_1_PutString("w: Increase speed\r\n");
 740              		.loc 1 267 0
 741 0054 2E48     		ldr	r0, .L69+48
 742 0056 FFF7FEFF 		bl	UART_1_PutString
 743              	.LVL83:
 744              	.L64:
 745              	.LBB3:
 268:main.c        **** 
 269:main.c        ****     for(;;)
 270:main.c        ****     {
 271:main.c        ****         CyDelay(500);
 746              		.loc 1 271 0
 747 005a 4FF4FA70 		mov	r0, #500
 748 005e FFF7FEFF 		bl	CyDelay
 749              	.LVL84:
 272:main.c        ****         //If and interrupt has occurred
 273:main.c        ****         //if(intFlag == 1)
 274:main.c        ****         //{
 275:main.c        ****             //intFlag = 0; //Reset to next interrupt
 276:main.c        ****             //char test[100];
 277:main.c        ****           //Looking at what is recevied
 278:main.c        ****             //snprintf(test,100," Den sendte integer er: %d\r\n",received );
ARM GAS  C:\Users\chris\AppData\Local\Temp\ccCZa2Nc.s 			page 20


 279:main.c        ****           //  UART_1_PutString(test); 
 280:main.c        ****             
 281:main.c        ****        
 282:main.c        ****         //}
 283:main.c        ****         UART_1_PutString("Broomba run\r\n");
 750              		.loc 1 283 0
 751 0062 2C48     		ldr	r0, .L69+52
 752 0064 FFF7FEFF 		bl	UART_1_PutString
 753              	.LVL85:
 284:main.c        ****         if(sensorPushed == LEFT)
 754              		.loc 1 284 0
 755 0068 2B4B     		ldr	r3, .L69+56
 756 006a DB78     		ldrb	r3, [r3, #3]	@ zero_extendqisi2
 757 006c 012B     		cmp	r3, #1
 758 006e 05D1     		bne	.L62
 285:main.c        ****         {
 286:main.c        ****             turnRight();
 759              		.loc 1 286 0
 760 0070 FFF7FEFF 		bl	turnRight
 761              	.LVL86:
 287:main.c        ****             sensor = 0;
 762              		.loc 1 287 0
 763 0074 0022     		movs	r2, #0
 764 0076 284B     		ldr	r3, .L69+56
 765 0078 9A70     		strb	r2, [r3, #2]
 766 007a 06E0     		b	.L63
 767              	.L62:
 288:main.c        ****         } 
 289:main.c        ****         else if(sensorPushed == RIGHT)
 768              		.loc 1 289 0
 769 007c 022B     		cmp	r3, #2
 770 007e 04D1     		bne	.L63
 290:main.c        ****         {
 291:main.c        ****            turnLeft();
 771              		.loc 1 291 0
 772 0080 FFF7FEFF 		bl	turnLeft
 773              	.LVL87:
 292:main.c        ****             sensor = 0;
 774              		.loc 1 292 0
 775 0084 0022     		movs	r2, #0
 776 0086 244B     		ldr	r3, .L69+56
 777 0088 9A70     		strb	r2, [r3, #2]
 778              	.L63:
 293:main.c        ****         }
 294:main.c        ****         Pin_1_ClearInterrupt();
 779              		.loc 1 294 0
 780 008a FFF7FEFF 		bl	Pin_1_ClearInterrupt
 781              	.LVL88:
 295:main.c        ****         isr_1_ClearPending();
 782              		.loc 1 295 0
 783 008e FFF7FEFF 		bl	isr_1_ClearPending
 784              	.LVL89:
 296:main.c        ****         sensorPushed = 0;
 785              		.loc 1 296 0
 786 0092 0022     		movs	r2, #0
 787 0094 204B     		ldr	r3, .L69+56
 788 0096 DA70     		strb	r2, [r3, #3]
ARM GAS  C:\Users\chris\AppData\Local\Temp\ccCZa2Nc.s 			page 21


 297:main.c        ****         CyDelay(2000);
 789              		.loc 1 297 0
 790 0098 4FF4FA60 		mov	r0, #2000
 791 009c FFF7FEFF 		bl	CyDelay
 792              	.LVL90:
 298:main.c        ****         
 299:main.c        ****         //SPI_Slave_WriteTxData('5');
 300:main.c        ****         //CyDelay(300);
 301:main.c        ****         
 302:main.c        ****          //if (ADC_SAR_1_IsEndConversion(ADC_SAR_1_WAIT_FOR_RESULT))
 303:main.c        ****         //{
 304:main.c        **** 			//Get current measurement from ADC
 305:main.c        ****             uint16_t result = ADC_SAR_1_GetResult16();
 793              		.loc 1 305 0
 794 00a0 FFF7FEFF 		bl	ADC_SAR_1_GetResult16
 795              	.LVL91:
 796 00a4 84B2     		uxth	r4, r0
 797              	.LVL92:
 306:main.c        **** 			//Convert measurement to mV using the built-in function
 307:main.c        **** 			uint16_t resultInMVolts = ADC_SAR_1_CountsTo_mVolts(result);
 798              		.loc 1 307 0
 799 00a6 FFF7FEFF 		bl	ADC_SAR_1_CountsTo_mVolts
 800              	.LVL93:
 308:main.c        **** 			//Convert to grams using linear function
 309:main.c        **** 			float convertedResult = (result - 1471.8)/1.4174;   
 801              		.loc 1 309 0
 802 00aa 2046     		mov	r0, r4
 803 00ac FFF7FEFF 		bl	__aeabi_i2d
 804              	.LVL94:
 805 00b0 0BA3     		adr	r3, .L69
 806 00b2 D3E90023 		ldrd	r2, [r3]
 807 00b6 FFF7FEFF 		bl	__aeabi_dsub
 808              	.LVL95:
 809 00ba 0BA3     		adr	r3, .L69+8
 810 00bc D3E90023 		ldrd	r2, [r3]
 811 00c0 FFF7FEFF 		bl	__aeabi_ddiv
 812              	.LVL96:
 813 00c4 FFF7FEFF 		bl	__aeabi_d2f
 814              	.LVL97:
 310:main.c        ****             if (convertedResult < 100)
 815              		.loc 1 310 0
 816 00c8 1449     		ldr	r1, .L69+60
 817 00ca FFF7FEFF 		bl	__aeabi_fcmplt
 818              	.LVL98:
 819 00ce 0028     		cmp	r0, #0
 820 00d0 C3D0     		beq	.L64
 311:main.c        ****             {
 312:main.c        ****                  SPI_Slave_WriteTxData('V');
 821              		.loc 1 312 0
 822 00d2 5620     		movs	r0, #86
 823 00d4 FFF7FEFF 		bl	SPI_Slave_WriteTxData
 824              	.LVL99:
 825 00d8 BFE7     		b	.L64
 826              	.L70:
 827 00da 00BFAFF3 		.align	3
 827      0080
 828              	.L69:
ARM GAS  C:\Users\chris\AppData\Local\Temp\ccCZa2Nc.s 			page 22


 829 00e0 33333333 		.word	858993459
 830 00e4 33FF9640 		.word	1083637555
 831 00e8 3D9B559F 		.word	-1621779651
 832 00ec ABADF63F 		.word	1073130923
 833 00f0 00000000 		.word	ISR_UART_rx_handler
 834 00f4 00000000 		.word	sensor_ISR
 835 00f8 00000000 		.word	ISR_SPI
 836 00fc A0000000 		.word	.LC8
 837 0100 C4000000 		.word	.LC9
 838 0104 D0000000 		.word	.LC10
 839 0108 E4000000 		.word	.LC11
 840 010c FC000000 		.word	.LC12
 841 0110 10010000 		.word	.LC13
 842 0114 24010000 		.word	.LC14
 843 0118 00000000 		.word	.LANCHOR0
 844 011c 0000C842 		.word	1120403456
 845              	.LBE3:
 846              		.cfi_endproc
 847              	.LFE75:
 848              		.size	main, .-main
 849              		.global	offsetADC
 850              		.global	forward
 851              		.global	speed
 852              		.global	intFlag
 853              		.global	received
 854              		.global	sensor
 855              		.global	backTimer
 856              		.global	turnSpeed
 857              		.data
 858              		.align	2
 859              		.set	.LANCHOR1,. + 0
 860              		.type	speed, %object
 861              		.size	speed, 1
 862              	speed:
 863 0000 32       		.byte	50
 864              		.type	forward, %object
 865              		.size	forward, 1
 866              	forward:
 867 0001 01       		.byte	1
 868 0002 0000     		.space	2
 869              		.type	backTimer, %object
 870              		.size	backTimer, 4
 871              	backTimer:
 872 0004 B80B0000 		.word	3000
 873              		.type	turnSpeed, %object
 874              		.size	turnSpeed, 4
 875              	turnSpeed:
 876 0008 B80B0000 		.word	3000
 877              		.section	.rodata.str1.4,"aMS",%progbits,1
 878              		.align	2
 879              	.LC0:
 880 0000 466C6167 		.ascii	"Flag bliver sat. Pin1\015\012\000"
 880      20626C69 
 880      76657220 
 880      7361742E 
 880      2050696E 
 881              	.LC1:
ARM GAS  C:\Users\chris\AppData\Local\Temp\ccCZa2Nc.s 			page 23


 882 0018 44656372 		.ascii	"Decreasing speed\015\012\000"
 882      65617369 
 882      6E672073 
 882      70656564 
 882      0D0A00
 883 002b 00       		.space	1
 884              	.LC2:
 885 002c 496E6372 		.ascii	"Increasing speed\015\012\000"
 885      65617369 
 885      6E672073 
 885      70656564 
 885      0D0A00
 886 003f 00       		.space	1
 887              	.LC3:
 888 0040 53746F70 		.ascii	"Stop\015\012\000"
 888      0D0A00
 889 0047 00       		.space	1
 890              	.LC4:
 891 0048 53657420 		.ascii	"Set direction: forwards\015\012\000"
 891      64697265 
 891      6374696F 
 891      6E3A2066 
 891      6F727761 
 892 0062 0000     		.space	2
 893              	.LC5:
 894 0064 53657420 		.ascii	"Set direction: backwards\015\012\000"
 894      64697265 
 894      6374696F 
 894      6E3A2062 
 894      61636B77 
 895 007f 00       		.space	1
 896              	.LC6:
 897 0080 5475726E 		.ascii	"Turning right\015\012\000"
 897      696E6720 
 897      72696768 
 897      740D0A00 
 898              	.LC7:
 899 0090 5475726E 		.ascii	"Turning left\015\012\000"
 899      696E6720 
 899      6C656674 
 899      0D0A00
 900 009f 00       		.space	1
 901              	.LC8:
 902 00a0 44432D4D 		.ascii	"DC-Motor-PWM application started\015\012\000"
 902      6F746F72 
 902      2D50574D 
 902      20617070 
 902      6C696361 
 903 00c3 00       		.space	1
 904              	.LC9:
 905 00c4 303A2053 		.ascii	"0: Stop\015\012\000"
 905      746F700D 
 905      0A00
 906 00ce 0000     		.space	2
 907              	.LC10:
 908 00d0 313A2044 		.ascii	"1: Drive forwards\015\012\000"
 908      72697665 
ARM GAS  C:\Users\chris\AppData\Local\Temp\ccCZa2Nc.s 			page 24


 908      20666F72 
 908      77617264 
 908      730D0A00 
 909              	.LC11:
 910 00e4 323A2044 		.ascii	"2: Drive backwards\015\012\000"
 910      72697665 
 910      20626163 
 910      6B776172 
 910      64730D0A 
 911 00f9 000000   		.space	3
 912              	.LC12:
 913 00fc 713A2044 		.ascii	"q: Decrease speed\015\012\000"
 913      65637265 
 913      61736520 
 913      73706565 
 913      640D0A00 
 914              	.LC13:
 915 0110 773A2049 		.ascii	"w: Increase speed\015\012\000"
 915      6E637265 
 915      61736520 
 915      73706565 
 915      640D0A00 
 916              	.LC14:
 917 0124 42726F6F 		.ascii	"Broomba run\015\012\000"
 917      6D626120 
 917      72756E0D 
 917      0A00
 918              		.bss
 919              		.align	1
 920              		.set	.LANCHOR0,. + 0
 921              		.type	received, %object
 922              		.size	received, 1
 923              	received:
 924 0000 00       		.space	1
 925              		.type	intFlag, %object
 926              		.size	intFlag, 1
 927              	intFlag:
 928 0001 00       		.space	1
 929              		.type	sensor, %object
 930              		.size	sensor, 1
 931              	sensor:
 932 0002 00       		.space	1
 933              		.type	sensorPushed, %object
 934              		.size	sensorPushed, 1
 935              	sensorPushed:
 936 0003 00       		.space	1
 937              		.type	offsetADC, %object
 938              		.size	offsetADC, 2
 939              	offsetADC:
 940 0004 0000     		.space	2
 941              		.text
 942              	.Letext0:
 943              		.file 2 "c:\\program files (x86)\\cypress\\psoc creator\\4.1\\psoc creator\\import\\gnu\\arm\\5.4.
 944              		.file 3 "c:\\program files (x86)\\cypress\\psoc creator\\4.1\\psoc creator\\import\\gnu\\arm\\5.4.
 945              		.file 4 "Generated_Source\\PSoC5/cytypes.h"
 946              		.file 5 "Generated_Source\\PSoC5/core_cm3.h"
 947              		.file 6 "Generated_Source\\PSoC5/SPI_Slave.h"
ARM GAS  C:\Users\chris\AppData\Local\Temp\ccCZa2Nc.s 			page 25


 948              		.file 7 "Generated_Source\\PSoC5/Pin_1.h"
 949              		.file 8 "Generated_Source\\PSoC5/UART_1.h"
 950              		.file 9 "Generated_Source\\PSoC5/PWM_M1.h"
 951              		.file 10 "Generated_Source\\PSoC5/PWM_M3.h"
 952              		.file 11 "Generated_Source\\PSoC5/PWM_M2.h"
 953              		.file 12 "Generated_Source\\PSoC5/PWM_M4.h"
 954              		.file 13 "Generated_Source\\PSoC5/CyLib.h"
 955              		.file 14 "Generated_Source\\PSoC5/isr_1.h"
 956              		.file 15 "Generated_Source\\PSoC5/ADC_SAR_1.h"
 957              		.file 16 "Generated_Source\\PSoC5/isr_uart_rx.h"
 958              		.file 17 "Generated_Source\\PSoC5/ISR_SPI.h"