ARM GAS  C:\Users\chris\AppData\Local\Temp\cc8k6IVE.s 			page 1


   1              		.syntax unified
   2              		.cpu cortex-m3
   3              		.fpu softvfp
   4              		.eabi_attribute 20, 1
   5              		.eabi_attribute 21, 1
   6              		.eabi_attribute 23, 3
   7              		.eabi_attribute 24, 1
   8              		.eabi_attribute 25, 1
   9              		.eabi_attribute 26, 1
  10              		.eabi_attribute 30, 1
  11              		.eabi_attribute 34, 1
  12              		.eabi_attribute 18, 4
  13              		.thumb
  14              		.syntax unified
  15              		.file	"main.c"
  16              		.text
  17              	.Ltext0:
  18              		.cfi_sections	.debug_frame
  19              		.section	.text.ISR_Timer_TC,"ax",%progbits
  20              		.align	2
  21              		.global	ISR_Timer_TC
  22              		.thumb
  23              		.thumb_func
  24              		.type	ISR_Timer_TC, %function
  25              	ISR_Timer_TC:
  26              	.LFB63:
  27              		.file 1 "main.c"
   1:main.c        **** /* ========================================
   2:main.c        ****  *
   3:main.c        ****  * Copyright YOUR COMPANY, THE YEAR
   4:main.c        ****  * All Rights Reserved
   5:main.c        ****  * UNPUBLISHED, LICENSED SOFTWARE.
   6:main.c        ****  *
   7:main.c        ****  * CONFIDENTIAL AND PROPRIETARY INFORMATION
   8:main.c        ****  * WHICH IS THE PROPERTY OF your company.
   9:main.c        ****  *
  10:main.c        ****  * ========================================
  11:main.c        **** */
  12:main.c        **** #include "project.h"
  13:main.c        **** 
  14:main.c        **** enum StepMode {
  15:main.c        **** 	WAVE = 0,
  16:main.c        **** 	FULLSTEP = 1,
  17:main.c        **** 	HALFSTEP = 2, 
  18:main.c        **** 	SNGCLOCK = 3, //Single step
  19:main.c        **** 	SNGCNTCLOCK = 4, //Single counterclockwise step
  20:main.c        **** 	STOP = 5
  21:main.c        **** };
  22:main.c        **** 
  23:main.c        **** volatile enum StepMode stepMode = WAVE;
  24:main.c        **** volatile uint8_t position = 0;
  25:main.c        **** volatile uint8_t direction = 0;
  26:main.c        **** volatile uint32 delay = 5;
  27:main.c        **** 
  28:main.c        **** CY_ISR_PROTO(ISR_UART_rx_handler);
  29:main.c        **** CY_ISR_PROTO(ISR_Timer_TC);
  30:main.c        **** void handleByteReceived(uint8 byteReceived);
ARM GAS  C:\Users\chris\AppData\Local\Temp\cc8k6IVE.s 			page 2


  31:main.c        **** void decreaseSpeed(void);
  32:main.c        **** void increaseSpeed(void);
  33:main.c        **** void driveForwards(void);
  34:main.c        **** void driveBackwards(void);
  35:main.c        **** void step(void);
  36:main.c        **** 
  37:main.c        **** CY_ISR(ISR_Timer_TC)
  38:main.c        **** {
  28              		.loc 1 38 0
  29              		.cfi_startproc
  30              		@ args = 0, pretend = 0, frame = 0
  31              		@ frame_needed = 0, uses_anonymous_args = 0
  32              		@ link register save eliminated.
  33 0000 7047     		bx	lr
  34              		.cfi_endproc
  35              	.LFE63:
  36              		.size	ISR_Timer_TC, .-ISR_Timer_TC
  37 0002 00BF     		.section	.text.decreaseSpeed,"ax",%progbits
  38              		.align	2
  39              		.global	decreaseSpeed
  40              		.thumb
  41              		.thumb_func
  42              		.type	decreaseSpeed, %function
  43              	decreaseSpeed:
  44              	.LFB67:
  39:main.c        **** }
  40:main.c        **** CY_ISR(ISR_UART_rx_handler)
  41:main.c        **** {
  42:main.c        ****     uint8_t bytesToRead = UART_GetRxBufferSize();
  43:main.c        ****     while (bytesToRead > 0)
  44:main.c        ****     {
  45:main.c        ****         uint8_t byteReceived = UART_ReadRxData();
  46:main.c        ****         UART_WriteTxData(byteReceived); // echo back
  47:main.c        ****         
  48:main.c        ****         handleByteReceived(byteReceived);
  49:main.c        ****         
  50:main.c        ****         bytesToRead--;
  51:main.c        ****     }
  52:main.c        **** }
  53:main.c        **** 
  54:main.c        **** 
  55:main.c        **** 	
  56:main.c        **** 
  57:main.c        **** int main(void)
  58:main.c        **** {
  59:main.c        ****     CyGlobalIntEnable; /* Enable global interrupts. */
  60:main.c        **** 
  61:main.c        ****     /* Place your initialization/startup code here (e.g. MyInst_Start()) */
  62:main.c        ****     isr_uart_StartEx(ISR_UART_rx_handler);
  63:main.c        **** 	//isr_timer_StartEx(ISR_Timer_TC);
  64:main.c        ****     UART_Start();
  65:main.c        **** 	//Timer_Start();
  66:main.c        ****   
  67:main.c        ****     
  68:main.c        ****     UART_PutString("Stepper motor application started\r\n");
  69:main.c        ****     UART_PutString("0: Stop\r\n");
  70:main.c        ****     UART_PutString("1: Drive forwards\r\n");
ARM GAS  C:\Users\chris\AppData\Local\Temp\cc8k6IVE.s 			page 3


  71:main.c        ****     UART_PutString("2: Drive backwards\r\n");
  72:main.c        ****     UART_PutString("q: Decrease speed\r\n");
  73:main.c        ****     UART_PutString("w: Increase speed\r\n");
  74:main.c        **** 	UART_PutString("5: Single rotation clockwise\r\n");
  75:main.c        **** 	UART_PutString("6: Single rotation counter clockwise\r\n");
  76:main.c        **** 	UART_PutString("7: Wave Drive\r\n");
  77:main.c        **** 	UART_PutString("8: Full Drive\r\n");
  78:main.c        **** 	UART_PutString("9: Half Step Drive\r\n");
  79:main.c        **** 
  80:main.c        ****     for(;;)
  81:main.c        ****     {
  82:main.c        **** 		CyDelay(delay);
  83:main.c        **** 		step();
  84:main.c        ****         /* Place your application code here. */
  85:main.c        ****     }
  86:main.c        **** }
  87:main.c        **** 
  88:main.c        **** 
  89:main.c        **** void handleByteReceived(uint8_t byteReceived)
  90:main.c        **** {
  91:main.c        ****     switch(byteReceived)
  92:main.c        ****     {
  93:main.c        ****         case 'q' :
  94:main.c        ****         {
  95:main.c        ****             decreaseSpeed();
  96:main.c        ****         }
  97:main.c        ****         break;
  98:main.c        ****         case 'w' :
  99:main.c        ****         {
 100:main.c        ****             increaseSpeed();
 101:main.c        ****         }
 102:main.c        ****         break;
 103:main.c        ****         case '1' :
 104:main.c        ****         {
 105:main.c        ****             driveForwards();
 106:main.c        ****         }
 107:main.c        ****         break;
 108:main.c        ****         case '2' :
 109:main.c        ****         {
 110:main.c        ****             driveBackwards();
 111:main.c        ****         }
 112:main.c        ****         break;
 113:main.c        ****         case '0' :
 114:main.c        ****         {
 115:main.c        ****             stepMode = STOP;
 116:main.c        ****             
 117:main.c        ****         }
 118:main.c        ****         break;
 119:main.c        ****         case '5' :
 120:main.c        ****         {
 121:main.c        **** 			UART_PutString("Single rotation clockwise\r\n");
 122:main.c        **** 			position = 0;
 123:main.c        ****             stepMode = SNGCLOCK;
 124:main.c        ****         }
 125:main.c        ****         break;
 126:main.c        ****         case '6' :
 127:main.c        ****         {
ARM GAS  C:\Users\chris\AppData\Local\Temp\cc8k6IVE.s 			page 4


 128:main.c        **** 			UART_PutString("Wave mode\r\n");
 129:main.c        **** 			position = 0;
 130:main.c        ****             stepMode = SNGCNTCLOCK; 
 131:main.c        ****         }
 132:main.c        ****         break;
 133:main.c        ****         case '7' :
 134:main.c        ****         {
 135:main.c        **** 			UART_PutString("Wave mode\r\n");
 136:main.c        **** 			position = 0;
 137:main.c        ****             stepMode = WAVE;
 138:main.c        ****         }
 139:main.c        ****         break;
 140:main.c        ****         case '8' :
 141:main.c        ****         {
 142:main.c        **** 			UART_PutString("Full step\r\n");
 143:main.c        **** 			position = 0;
 144:main.c        ****             stepMode = FULLSTEP;		
 145:main.c        ****             
 146:main.c        ****         }
 147:main.c        ****         break;
 148:main.c        ****         case '9' :
 149:main.c        ****         {
 150:main.c        **** 			UART_PutString("Half-drive step\r\n");
 151:main.c        **** 			position = 0;
 152:main.c        ****             stepMode = HALFSTEP;          
 153:main.c        ****         }
 154:main.c        ****         break;
 155:main.c        ****         default :
 156:main.c        ****         {
 157:main.c        ****             // nothing
 158:main.c        ****         }
 159:main.c        ****         break;
 160:main.c        ****     }
 161:main.c        **** }
 162:main.c        **** 
 163:main.c        **** void decreaseSpeed()
 164:main.c        **** {
  45              		.loc 1 164 0
  46              		.cfi_startproc
  47              		@ args = 0, pretend = 0, frame = 0
  48              		@ frame_needed = 0, uses_anonymous_args = 0
  49              		.loc 1 164 0
  50 0000 08B5     		push	{r3, lr}
  51              		.cfi_def_cfa_offset 8
  52              		.cfi_offset 3, -8
  53              		.cfi_offset 14, -4
 165:main.c        ****     UART_PutString("Decreasing speed\r\n");
  54              		.loc 1 165 0
  55 0002 0648     		ldr	r0, .L5
  56 0004 FFF7FEFF 		bl	UART_PutString
  57              	.LVL0:
 166:main.c        **** 	if (delay >= 8)
  58              		.loc 1 166 0
  59 0008 054B     		ldr	r3, .L5+4
  60 000a 1B68     		ldr	r3, [r3]
  61 000c 072B     		cmp	r3, #7
  62 000e 03D8     		bhi	.L2
ARM GAS  C:\Users\chris\AppData\Local\Temp\cc8k6IVE.s 			page 5


 167:main.c        **** 	{
 168:main.c        **** 	}
 169:main.c        **** 	else
 170:main.c        **** 	{
 171:main.c        **** 		delay++;
  63              		.loc 1 171 0
  64 0010 034A     		ldr	r2, .L5+4
  65 0012 1368     		ldr	r3, [r2]
  66 0014 0133     		adds	r3, r3, #1
  67 0016 1360     		str	r3, [r2]
  68              	.L2:
  69 0018 08BD     		pop	{r3, pc}
  70              	.L6:
  71 001a 00BF     		.align	2
  72              	.L5:
  73 001c 00000000 		.word	.LC0
  74 0020 00000000 		.word	.LANCHOR0
  75              		.cfi_endproc
  76              	.LFE67:
  77              		.size	decreaseSpeed, .-decreaseSpeed
  78              		.section	.text.increaseSpeed,"ax",%progbits
  79              		.align	2
  80              		.global	increaseSpeed
  81              		.thumb
  82              		.thumb_func
  83              		.type	increaseSpeed, %function
  84              	increaseSpeed:
  85              	.LFB68:
 172:main.c        **** 	}
 173:main.c        **** }
 174:main.c        **** 
 175:main.c        **** void increaseSpeed()
 176:main.c        **** {
  86              		.loc 1 176 0
  87              		.cfi_startproc
  88              		@ args = 0, pretend = 0, frame = 0
  89              		@ frame_needed = 0, uses_anonymous_args = 0
  90 0000 08B5     		push	{r3, lr}
  91              		.cfi_def_cfa_offset 8
  92              		.cfi_offset 3, -8
  93              		.cfi_offset 14, -4
 177:main.c        ****     UART_PutString("Increasing speed\r\n");
  94              		.loc 1 177 0
  95 0002 0648     		ldr	r0, .L10
  96 0004 FFF7FEFF 		bl	UART_PutString
  97              	.LVL1:
 178:main.c        **** 	if (delay <= 1)
  98              		.loc 1 178 0
  99 0008 054B     		ldr	r3, .L10+4
 100 000a 1B68     		ldr	r3, [r3]
 101 000c 012B     		cmp	r3, #1
 102 000e 03D9     		bls	.L7
 179:main.c        **** 	{
 180:main.c        **** 	}
 181:main.c        **** 	else
 182:main.c        **** 	{
 183:main.c        **** 		delay--;
ARM GAS  C:\Users\chris\AppData\Local\Temp\cc8k6IVE.s 			page 6


 103              		.loc 1 183 0
 104 0010 034A     		ldr	r2, .L10+4
 105 0012 1368     		ldr	r3, [r2]
 106 0014 013B     		subs	r3, r3, #1
 107 0016 1360     		str	r3, [r2]
 108              	.L7:
 109 0018 08BD     		pop	{r3, pc}
 110              	.L11:
 111 001a 00BF     		.align	2
 112              	.L10:
 113 001c 14000000 		.word	.LC1
 114 0020 00000000 		.word	.LANCHOR0
 115              		.cfi_endproc
 116              	.LFE68:
 117              		.size	increaseSpeed, .-increaseSpeed
 118              		.section	.text.driveForwards,"ax",%progbits
 119              		.align	2
 120              		.global	driveForwards
 121              		.thumb
 122              		.thumb_func
 123              		.type	driveForwards, %function
 124              	driveForwards:
 125              	.LFB69:
 184:main.c        **** 	}
 185:main.c        **** 	
 186:main.c        **** 
 187:main.c        **** }
 188:main.c        **** 
 189:main.c        **** void driveForwards()
 190:main.c        **** {
 126              		.loc 1 190 0
 127              		.cfi_startproc
 128              		@ args = 0, pretend = 0, frame = 0
 129              		@ frame_needed = 0, uses_anonymous_args = 0
 130 0000 08B5     		push	{r3, lr}
 131              		.cfi_def_cfa_offset 8
 132              		.cfi_offset 3, -8
 133              		.cfi_offset 14, -4
 191:main.c        ****     UART_PutString("Set direction: forwards\r\n");
 134              		.loc 1 191 0
 135 0002 0448     		ldr	r0, .L14
 136 0004 FFF7FEFF 		bl	UART_PutString
 137              	.LVL2:
 192:main.c        **** 	direction = 0;
 138              		.loc 1 192 0
 139 0008 034B     		ldr	r3, .L14+4
 140 000a 0022     		movs	r2, #0
 141 000c 1A70     		strb	r2, [r3]
 193:main.c        **** 	position = 0;
 142              		.loc 1 193 0
 143 000e 5A70     		strb	r2, [r3, #1]
 144 0010 08BD     		pop	{r3, pc}
 145              	.L15:
 146 0012 00BF     		.align	2
 147              	.L14:
 148 0014 28000000 		.word	.LC2
 149 0018 00000000 		.word	.LANCHOR1
ARM GAS  C:\Users\chris\AppData\Local\Temp\cc8k6IVE.s 			page 7


 150              		.cfi_endproc
 151              	.LFE69:
 152              		.size	driveForwards, .-driveForwards
 153              		.section	.text.driveBackwards,"ax",%progbits
 154              		.align	2
 155              		.global	driveBackwards
 156              		.thumb
 157              		.thumb_func
 158              		.type	driveBackwards, %function
 159              	driveBackwards:
 160              	.LFB70:
 194:main.c        **** }
 195:main.c        **** 
 196:main.c        **** void driveBackwards()
 197:main.c        **** {
 161              		.loc 1 197 0
 162              		.cfi_startproc
 163              		@ args = 0, pretend = 0, frame = 0
 164              		@ frame_needed = 0, uses_anonymous_args = 0
 165 0000 08B5     		push	{r3, lr}
 166              		.cfi_def_cfa_offset 8
 167              		.cfi_offset 3, -8
 168              		.cfi_offset 14, -4
 198:main.c        ****     UART_PutString("Set direction: backwards\r\n");
 169              		.loc 1 198 0
 170 0002 0448     		ldr	r0, .L18
 171 0004 FFF7FEFF 		bl	UART_PutString
 172              	.LVL3:
 199:main.c        **** 	direction = 1;
 173              		.loc 1 199 0
 174 0008 034B     		ldr	r3, .L18+4
 175 000a 0122     		movs	r2, #1
 176 000c 1A70     		strb	r2, [r3]
 200:main.c        **** 	position = 0;	
 177              		.loc 1 200 0
 178 000e 0022     		movs	r2, #0
 179 0010 5A70     		strb	r2, [r3, #1]
 180 0012 08BD     		pop	{r3, pc}
 181              	.L19:
 182              		.align	2
 183              	.L18:
 184 0014 44000000 		.word	.LC3
 185 0018 00000000 		.word	.LANCHOR1
 186              		.cfi_endproc
 187              	.LFE70:
 188              		.size	driveBackwards, .-driveBackwards
 189              		.section	.text.handleByteReceived,"ax",%progbits
 190              		.align	2
 191              		.global	handleByteReceived
 192              		.thumb
 193              		.thumb_func
 194              		.type	handleByteReceived, %function
 195              	handleByteReceived:
 196              	.LFB66:
  90:main.c        ****     switch(byteReceived)
 197              		.loc 1 90 0
 198              		.cfi_startproc
ARM GAS  C:\Users\chris\AppData\Local\Temp\cc8k6IVE.s 			page 8


 199              		@ args = 0, pretend = 0, frame = 0
 200              		@ frame_needed = 0, uses_anonymous_args = 0
 201              	.LVL4:
 202 0000 08B5     		push	{r3, lr}
 203              		.cfi_def_cfa_offset 8
 204              		.cfi_offset 3, -8
 205              		.cfi_offset 14, -4
  91:main.c        ****     {
 206              		.loc 1 91 0
 207 0002 3038     		subs	r0, r0, #48
 208              	.LVL5:
 209 0004 4728     		cmp	r0, #71
 210 0006 60D8     		bhi	.L20
 211 0008 DFE800F0 		tbb	[pc, r0]
 212              	.L23:
 213 000c 30       		.byte	(.L22-.L23)/2
 214 000d 2A       		.byte	(.L24-.L23)/2
 215 000e 2D       		.byte	(.L25-.L23)/2
 216 000f 5F       		.byte	(.L20-.L23)/2
 217 0010 5F       		.byte	(.L20-.L23)/2
 218 0011 34       		.byte	(.L26-.L23)/2
 219 0012 3D       		.byte	(.L27-.L23)/2
 220 0013 46       		.byte	(.L28-.L23)/2
 221 0014 4E       		.byte	(.L29-.L23)/2
 222 0015 57       		.byte	(.L30-.L23)/2
 223 0016 5F       		.byte	(.L20-.L23)/2
 224 0017 5F       		.byte	(.L20-.L23)/2
 225 0018 5F       		.byte	(.L20-.L23)/2
 226 0019 5F       		.byte	(.L20-.L23)/2
 227 001a 5F       		.byte	(.L20-.L23)/2
 228 001b 5F       		.byte	(.L20-.L23)/2
 229 001c 5F       		.byte	(.L20-.L23)/2
 230 001d 5F       		.byte	(.L20-.L23)/2
 231 001e 5F       		.byte	(.L20-.L23)/2
 232 001f 5F       		.byte	(.L20-.L23)/2
 233 0020 5F       		.byte	(.L20-.L23)/2
 234 0021 5F       		.byte	(.L20-.L23)/2
 235 0022 5F       		.byte	(.L20-.L23)/2
 236 0023 5F       		.byte	(.L20-.L23)/2
 237 0024 5F       		.byte	(.L20-.L23)/2
 238 0025 5F       		.byte	(.L20-.L23)/2
 239 0026 5F       		.byte	(.L20-.L23)/2
 240 0027 5F       		.byte	(.L20-.L23)/2
 241 0028 5F       		.byte	(.L20-.L23)/2
 242 0029 5F       		.byte	(.L20-.L23)/2
 243 002a 5F       		.byte	(.L20-.L23)/2
 244 002b 5F       		.byte	(.L20-.L23)/2
 245 002c 5F       		.byte	(.L20-.L23)/2
 246 002d 5F       		.byte	(.L20-.L23)/2
 247 002e 5F       		.byte	(.L20-.L23)/2
 248 002f 5F       		.byte	(.L20-.L23)/2
 249 0030 5F       		.byte	(.L20-.L23)/2
 250 0031 5F       		.byte	(.L20-.L23)/2
 251 0032 5F       		.byte	(.L20-.L23)/2
 252 0033 5F       		.byte	(.L20-.L23)/2
 253 0034 5F       		.byte	(.L20-.L23)/2
 254 0035 5F       		.byte	(.L20-.L23)/2
ARM GAS  C:\Users\chris\AppData\Local\Temp\cc8k6IVE.s 			page 9


 255 0036 5F       		.byte	(.L20-.L23)/2
 256 0037 5F       		.byte	(.L20-.L23)/2
 257 0038 5F       		.byte	(.L20-.L23)/2
 258 0039 5F       		.byte	(.L20-.L23)/2
 259 003a 5F       		.byte	(.L20-.L23)/2
 260 003b 5F       		.byte	(.L20-.L23)/2
 261 003c 5F       		.byte	(.L20-.L23)/2
 262 003d 5F       		.byte	(.L20-.L23)/2
 263 003e 5F       		.byte	(.L20-.L23)/2
 264 003f 5F       		.byte	(.L20-.L23)/2
 265 0040 5F       		.byte	(.L20-.L23)/2
 266 0041 5F       		.byte	(.L20-.L23)/2
 267 0042 5F       		.byte	(.L20-.L23)/2
 268 0043 5F       		.byte	(.L20-.L23)/2
 269 0044 5F       		.byte	(.L20-.L23)/2
 270 0045 5F       		.byte	(.L20-.L23)/2
 271 0046 5F       		.byte	(.L20-.L23)/2
 272 0047 5F       		.byte	(.L20-.L23)/2
 273 0048 5F       		.byte	(.L20-.L23)/2
 274 0049 5F       		.byte	(.L20-.L23)/2
 275 004a 5F       		.byte	(.L20-.L23)/2
 276 004b 5F       		.byte	(.L20-.L23)/2
 277 004c 5F       		.byte	(.L20-.L23)/2
 278 004d 24       		.byte	(.L31-.L23)/2
 279 004e 5F       		.byte	(.L20-.L23)/2
 280 004f 5F       		.byte	(.L20-.L23)/2
 281 0050 5F       		.byte	(.L20-.L23)/2
 282 0051 5F       		.byte	(.L20-.L23)/2
 283 0052 5F       		.byte	(.L20-.L23)/2
 284 0053 27       		.byte	(.L32-.L23)/2
 285              		.p2align 1
 286              	.L31:
  95:main.c        ****         }
 287              		.loc 1 95 0
 288 0054 FFF7FEFF 		bl	decreaseSpeed
 289              	.LVL6:
  97:main.c        ****         case 'w' :
 290              		.loc 1 97 0
 291 0058 08BD     		pop	{r3, pc}
 292              	.L32:
 100:main.c        ****         }
 293              		.loc 1 100 0
 294 005a FFF7FEFF 		bl	increaseSpeed
 295              	.LVL7:
 102:main.c        ****         case '1' :
 296              		.loc 1 102 0
 297 005e 08BD     		pop	{r3, pc}
 298              	.L24:
 105:main.c        ****         }
 299              		.loc 1 105 0
 300 0060 FFF7FEFF 		bl	driveForwards
 301              	.LVL8:
 107:main.c        ****         case '2' :
 302              		.loc 1 107 0
 303 0064 08BD     		pop	{r3, pc}
 304              	.L25:
 110:main.c        ****         }
ARM GAS  C:\Users\chris\AppData\Local\Temp\cc8k6IVE.s 			page 10


 305              		.loc 1 110 0
 306 0066 FFF7FEFF 		bl	driveBackwards
 307              	.LVL9:
 112:main.c        ****         case '0' :
 308              		.loc 1 112 0
 309 006a 08BD     		pop	{r3, pc}
 310              	.L22:
 115:main.c        ****             
 311              		.loc 1 115 0
 312 006c 0522     		movs	r2, #5
 313 006e 174B     		ldr	r3, .L34
 314 0070 9A70     		strb	r2, [r3, #2]
 118:main.c        ****         case '5' :
 315              		.loc 1 118 0
 316 0072 08BD     		pop	{r3, pc}
 317              	.L26:
 121:main.c        **** 			position = 0;
 318              		.loc 1 121 0
 319 0074 1648     		ldr	r0, .L34+4
 320 0076 FFF7FEFF 		bl	UART_PutString
 321              	.LVL10:
 122:main.c        ****             stepMode = SNGCLOCK;
 322              		.loc 1 122 0
 323 007a 144B     		ldr	r3, .L34
 324 007c 0022     		movs	r2, #0
 325 007e 5A70     		strb	r2, [r3, #1]
 123:main.c        ****         }
 326              		.loc 1 123 0
 327 0080 0322     		movs	r2, #3
 328 0082 9A70     		strb	r2, [r3, #2]
 125:main.c        ****         case '6' :
 329              		.loc 1 125 0
 330 0084 08BD     		pop	{r3, pc}
 331              	.L27:
 128:main.c        **** 			position = 0;
 332              		.loc 1 128 0
 333 0086 1348     		ldr	r0, .L34+8
 334 0088 FFF7FEFF 		bl	UART_PutString
 335              	.LVL11:
 129:main.c        ****             stepMode = SNGCNTCLOCK; 
 336              		.loc 1 129 0
 337 008c 0F4B     		ldr	r3, .L34
 338 008e 0022     		movs	r2, #0
 339 0090 5A70     		strb	r2, [r3, #1]
 130:main.c        ****         }
 340              		.loc 1 130 0
 341 0092 0422     		movs	r2, #4
 342 0094 9A70     		strb	r2, [r3, #2]
 132:main.c        ****         case '7' :
 343              		.loc 1 132 0
 344 0096 08BD     		pop	{r3, pc}
 345              	.L28:
 135:main.c        **** 			position = 0;
 346              		.loc 1 135 0
 347 0098 0E48     		ldr	r0, .L34+8
 348 009a FFF7FEFF 		bl	UART_PutString
 349              	.LVL12:
ARM GAS  C:\Users\chris\AppData\Local\Temp\cc8k6IVE.s 			page 11


 136:main.c        ****             stepMode = WAVE;
 350              		.loc 1 136 0
 351 009e 0B4B     		ldr	r3, .L34
 352 00a0 0022     		movs	r2, #0
 353 00a2 5A70     		strb	r2, [r3, #1]
 137:main.c        ****         }
 354              		.loc 1 137 0
 355 00a4 9A70     		strb	r2, [r3, #2]
 139:main.c        ****         case '8' :
 356              		.loc 1 139 0
 357 00a6 08BD     		pop	{r3, pc}
 358              	.L29:
 142:main.c        **** 			position = 0;
 359              		.loc 1 142 0
 360 00a8 0B48     		ldr	r0, .L34+12
 361 00aa FFF7FEFF 		bl	UART_PutString
 362              	.LVL13:
 143:main.c        ****             stepMode = FULLSTEP;		
 363              		.loc 1 143 0
 364 00ae 074B     		ldr	r3, .L34
 365 00b0 0022     		movs	r2, #0
 366 00b2 5A70     		strb	r2, [r3, #1]
 144:main.c        ****             
 367              		.loc 1 144 0
 368 00b4 0122     		movs	r2, #1
 369 00b6 9A70     		strb	r2, [r3, #2]
 147:main.c        ****         case '9' :
 370              		.loc 1 147 0
 371 00b8 08BD     		pop	{r3, pc}
 372              	.L30:
 150:main.c        **** 			position = 0;
 373              		.loc 1 150 0
 374 00ba 0848     		ldr	r0, .L34+16
 375 00bc FFF7FEFF 		bl	UART_PutString
 376              	.LVL14:
 151:main.c        ****             stepMode = HALFSTEP;          
 377              		.loc 1 151 0
 378 00c0 024B     		ldr	r3, .L34
 379 00c2 0022     		movs	r2, #0
 380 00c4 5A70     		strb	r2, [r3, #1]
 152:main.c        ****         }
 381              		.loc 1 152 0
 382 00c6 0222     		movs	r2, #2
 383 00c8 9A70     		strb	r2, [r3, #2]
 384              	.L20:
 385 00ca 08BD     		pop	{r3, pc}
 386              	.L35:
 387              		.align	2
 388              	.L34:
 389 00cc 00000000 		.word	.LANCHOR1
 390 00d0 60000000 		.word	.LC4
 391 00d4 7C000000 		.word	.LC5
 392 00d8 88000000 		.word	.LC6
 393 00dc 94000000 		.word	.LC7
 394              		.cfi_endproc
 395              	.LFE66:
 396              		.size	handleByteReceived, .-handleByteReceived
ARM GAS  C:\Users\chris\AppData\Local\Temp\cc8k6IVE.s 			page 12


 397              		.section	.text.ISR_UART_rx_handler,"ax",%progbits
 398              		.align	2
 399              		.global	ISR_UART_rx_handler
 400              		.thumb
 401              		.thumb_func
 402              		.type	ISR_UART_rx_handler, %function
 403              	ISR_UART_rx_handler:
 404              	.LFB64:
  41:main.c        ****     uint8_t bytesToRead = UART_GetRxBufferSize();
 405              		.loc 1 41 0
 406              		.cfi_startproc
 407              		@ args = 0, pretend = 0, frame = 0
 408              		@ frame_needed = 0, uses_anonymous_args = 0
 409 0000 38B5     		push	{r3, r4, r5, lr}
 410              		.cfi_def_cfa_offset 16
 411              		.cfi_offset 3, -16
 412              		.cfi_offset 4, -12
 413              		.cfi_offset 5, -8
 414              		.cfi_offset 14, -4
  42:main.c        ****     while (bytesToRead > 0)
 415              		.loc 1 42 0
 416 0002 FFF7FEFF 		bl	UART_GetRxBufferSize
 417              	.LVL15:
 418 0006 0446     		mov	r4, r0
 419              	.LVL16:
  43:main.c        ****     {
 420              		.loc 1 43 0
 421 0008 09E0     		b	.L37
 422              	.L38:
 423              	.LBB2:
  45:main.c        ****         UART_WriteTxData(byteReceived); // echo back
 424              		.loc 1 45 0
 425 000a FFF7FEFF 		bl	UART_ReadRxData
 426              	.LVL17:
 427 000e 0546     		mov	r5, r0
 428              	.LVL18:
  46:main.c        ****         
 429              		.loc 1 46 0
 430 0010 FFF7FEFF 		bl	UART_WriteTxData
 431              	.LVL19:
  48:main.c        ****         
 432              		.loc 1 48 0
 433 0014 2846     		mov	r0, r5
 434 0016 FFF7FEFF 		bl	handleByteReceived
 435              	.LVL20:
  50:main.c        ****     }
 436              		.loc 1 50 0
 437 001a 013C     		subs	r4, r4, #1
 438              	.LVL21:
 439 001c E4B2     		uxtb	r4, r4
 440              	.LVL22:
 441              	.L37:
 442              	.LBE2:
  43:main.c        ****     {
 443              		.loc 1 43 0
 444 001e 002C     		cmp	r4, #0
 445 0020 F3D1     		bne	.L38
ARM GAS  C:\Users\chris\AppData\Local\Temp\cc8k6IVE.s 			page 13


  52:main.c        **** 
 446              		.loc 1 52 0
 447 0022 38BD     		pop	{r3, r4, r5, pc}
 448              		.cfi_endproc
 449              	.LFE64:
 450              		.size	ISR_UART_rx_handler, .-ISR_UART_rx_handler
 451              		.section	.text.step,"ax",%progbits
 452              		.align	2
 453              		.global	step
 454              		.thumb
 455              		.thumb_func
 456              		.type	step, %function
 457              	step:
 458              	.LFB71:
 201:main.c        **** }
 202:main.c        **** 
 203:main.c        **** void step()
 204:main.c        **** {
 459              		.loc 1 204 0
 460              		.cfi_startproc
 461              		@ args = 0, pretend = 0, frame = 0
 462              		@ frame_needed = 0, uses_anonymous_args = 0
 463 0000 08B5     		push	{r3, lr}
 464              		.cfi_def_cfa_offset 8
 465              		.cfi_offset 3, -8
 466              		.cfi_offset 14, -4
 205:main.c        **** 	if (stepMode == WAVE)
 467              		.loc 1 205 0
 468 0002 AC4B     		ldr	r3, .L113
 469 0004 9B78     		ldrb	r3, [r3, #2]	@ zero_extendqisi2
 470 0006 13F0FF0F 		tst	r3, #255
 471 000a 7AD1     		bne	.L41
 206:main.c        **** 	{
 207:main.c        **** 		switch(position)
 472              		.loc 1 207 0
 473 000c A94B     		ldr	r3, .L113
 474 000e 5B78     		ldrb	r3, [r3, #1]	@ zero_extendqisi2
 475 0010 DBB2     		uxtb	r3, r3
 476 0012 042B     		cmp	r3, #4
 477 0014 00F2A582 		bhi	.L40
 478 0018 DFE803F0 		tbb	[pc, r3]
 479              	.L44:
 480 001c 03       		.byte	(.L43-.L44)/2
 481 001d 1E       		.byte	(.L45-.L44)/2
 482 001e 39       		.byte	(.L46-.L44)/2
 483 001f 54       		.byte	(.L47-.L44)/2
 484 0020 6F       		.byte	(.L48-.L44)/2
 485 0021 00       		.p2align 1
 486              	.L43:
 208:main.c        **** 		{
 209:main.c        **** 			case 0:
 210:main.c        **** 			{
 211:main.c        **** 				if (direction == 0)
 487              		.loc 1 211 0
 488 0022 A44B     		ldr	r3, .L113
 489 0024 1B78     		ldrb	r3, [r3]	@ zero_extendqisi2
 490 0026 13F0FF0F 		tst	r3, #255
ARM GAS  C:\Users\chris\AppData\Local\Temp\cc8k6IVE.s 			page 14


 491 002a 05D1     		bne	.L49
 212:main.c        **** 				{
 213:main.c        **** 					position++;
 492              		.loc 1 213 0
 493 002c A14A     		ldr	r2, .L113
 494 002e 5378     		ldrb	r3, [r2, #1]	@ zero_extendqisi2
 495 0030 0133     		adds	r3, r3, #1
 496 0032 DBB2     		uxtb	r3, r3
 497 0034 5370     		strb	r3, [r2, #1]
 498 0036 02E0     		b	.L50
 499              	.L49:
 214:main.c        **** 				}
 215:main.c        **** 				else
 216:main.c        **** 				{
 217:main.c        **** 					position = 3;
 500              		.loc 1 217 0
 501 0038 0322     		movs	r2, #3
 502 003a 9E4B     		ldr	r3, .L113
 503 003c 5A70     		strb	r2, [r3, #1]
 504              	.L50:
 218:main.c        **** 				}
 219:main.c        **** 				Pin_1_Write(1); //A
 505              		.loc 1 219 0
 506 003e 0120     		movs	r0, #1
 507 0040 FFF7FEFF 		bl	Pin_1_Write
 508              	.LVL23:
 220:main.c        **** 				Pin_2_Write(0); //A'
 509              		.loc 1 220 0
 510 0044 0020     		movs	r0, #0
 511 0046 FFF7FEFF 		bl	Pin_2_Write
 512              	.LVL24:
 221:main.c        **** 				Pin_3_Write(0); //B
 513              		.loc 1 221 0
 514 004a 0020     		movs	r0, #0
 515 004c FFF7FEFF 		bl	Pin_3_Write
 516              	.LVL25:
 222:main.c        **** 				Pin_4_Write(0); //B'
 517              		.loc 1 222 0
 518 0050 0020     		movs	r0, #0
 519 0052 FFF7FEFF 		bl	Pin_4_Write
 520              	.LVL26:
 223:main.c        **** 			}
 224:main.c        **** 			break;
 521              		.loc 1 224 0
 522 0056 08BD     		pop	{r3, pc}
 523              	.L45:
 225:main.c        **** 			case 1:
 226:main.c        **** 			{
 227:main.c        **** 				if (direction == 0)
 524              		.loc 1 227 0
 525 0058 964B     		ldr	r3, .L113
 526 005a 1B78     		ldrb	r3, [r3]	@ zero_extendqisi2
 527 005c 13F0FF0F 		tst	r3, #255
 528 0060 05D1     		bne	.L51
 228:main.c        **** 				{
 229:main.c        **** 					position++;
 529              		.loc 1 229 0
ARM GAS  C:\Users\chris\AppData\Local\Temp\cc8k6IVE.s 			page 15


 530 0062 944A     		ldr	r2, .L113
 531 0064 5378     		ldrb	r3, [r2, #1]	@ zero_extendqisi2
 532 0066 0133     		adds	r3, r3, #1
 533 0068 DBB2     		uxtb	r3, r3
 534 006a 5370     		strb	r3, [r2, #1]
 535 006c 02E0     		b	.L52
 536              	.L51:
 230:main.c        **** 				}
 231:main.c        **** 				else
 232:main.c        **** 				{
 233:main.c        **** 					position = 0;
 537              		.loc 1 233 0
 538 006e 0022     		movs	r2, #0
 539 0070 904B     		ldr	r3, .L113
 540 0072 5A70     		strb	r2, [r3, #1]
 541              	.L52:
 234:main.c        **** 				}
 235:main.c        **** 				Pin_1_Write(0);//A
 542              		.loc 1 235 0
 543 0074 0020     		movs	r0, #0
 544 0076 FFF7FEFF 		bl	Pin_1_Write
 545              	.LVL27:
 236:main.c        **** 				Pin_2_Write(0);//A'
 546              		.loc 1 236 0
 547 007a 0020     		movs	r0, #0
 548 007c FFF7FEFF 		bl	Pin_2_Write
 549              	.LVL28:
 237:main.c        **** 				Pin_3_Write(1);//B
 550              		.loc 1 237 0
 551 0080 0120     		movs	r0, #1
 552 0082 FFF7FEFF 		bl	Pin_3_Write
 553              	.LVL29:
 238:main.c        **** 				Pin_4_Write(0);//B'
 554              		.loc 1 238 0
 555 0086 0020     		movs	r0, #0
 556 0088 FFF7FEFF 		bl	Pin_4_Write
 557              	.LVL30:
 239:main.c        **** 			}
 240:main.c        **** 			break;
 558              		.loc 1 240 0
 559 008c 08BD     		pop	{r3, pc}
 560              	.L46:
 241:main.c        **** 			case 2:
 242:main.c        **** 			{
 243:main.c        **** 				if (direction == 0)
 561              		.loc 1 243 0
 562 008e 894B     		ldr	r3, .L113
 563 0090 1B78     		ldrb	r3, [r3]	@ zero_extendqisi2
 564 0092 13F0FF0F 		tst	r3, #255
 565 0096 05D1     		bne	.L53
 244:main.c        **** 				{
 245:main.c        **** 					position++;
 566              		.loc 1 245 0
 567 0098 864A     		ldr	r2, .L113
 568 009a 5378     		ldrb	r3, [r2, #1]	@ zero_extendqisi2
 569 009c 0133     		adds	r3, r3, #1
 570 009e DBB2     		uxtb	r3, r3
ARM GAS  C:\Users\chris\AppData\Local\Temp\cc8k6IVE.s 			page 16


 571 00a0 5370     		strb	r3, [r2, #1]
 572 00a2 02E0     		b	.L54
 573              	.L53:
 246:main.c        **** 				}
 247:main.c        **** 				else
 248:main.c        **** 				{
 249:main.c        **** 					position = 1;
 574              		.loc 1 249 0
 575 00a4 0122     		movs	r2, #1
 576 00a6 834B     		ldr	r3, .L113
 577 00a8 5A70     		strb	r2, [r3, #1]
 578              	.L54:
 250:main.c        **** 				}
 251:main.c        **** 				Pin_1_Write(0);
 579              		.loc 1 251 0
 580 00aa 0020     		movs	r0, #0
 581 00ac FFF7FEFF 		bl	Pin_1_Write
 582              	.LVL31:
 252:main.c        **** 				Pin_2_Write(1);
 583              		.loc 1 252 0
 584 00b0 0120     		movs	r0, #1
 585 00b2 FFF7FEFF 		bl	Pin_2_Write
 586              	.LVL32:
 253:main.c        **** 				Pin_3_Write(0);
 587              		.loc 1 253 0
 588 00b6 0020     		movs	r0, #0
 589 00b8 FFF7FEFF 		bl	Pin_3_Write
 590              	.LVL33:
 254:main.c        **** 				Pin_4_Write(0);
 591              		.loc 1 254 0
 592 00bc 0020     		movs	r0, #0
 593 00be FFF7FEFF 		bl	Pin_4_Write
 594              	.LVL34:
 255:main.c        **** 			}
 256:main.c        **** 			break;
 595              		.loc 1 256 0
 596 00c2 08BD     		pop	{r3, pc}
 597              	.L47:
 257:main.c        **** 			case 3:
 258:main.c        **** 			{
 259:main.c        **** 				if (direction == 0)
 598              		.loc 1 259 0
 599 00c4 7B4B     		ldr	r3, .L113
 600 00c6 1B78     		ldrb	r3, [r3]	@ zero_extendqisi2
 601 00c8 13F0FF0F 		tst	r3, #255
 602 00cc 05D1     		bne	.L55
 260:main.c        **** 				{
 261:main.c        **** 					position++;
 603              		.loc 1 261 0
 604 00ce 794A     		ldr	r2, .L113
 605 00d0 5378     		ldrb	r3, [r2, #1]	@ zero_extendqisi2
 606 00d2 0133     		adds	r3, r3, #1
 607 00d4 DBB2     		uxtb	r3, r3
 608 00d6 5370     		strb	r3, [r2, #1]
 609 00d8 02E0     		b	.L56
 610              	.L55:
 262:main.c        **** 				}
ARM GAS  C:\Users\chris\AppData\Local\Temp\cc8k6IVE.s 			page 17


 263:main.c        **** 				else
 264:main.c        **** 				{
 265:main.c        **** 					position = 2;
 611              		.loc 1 265 0
 612 00da 0222     		movs	r2, #2
 613 00dc 754B     		ldr	r3, .L113
 614 00de 5A70     		strb	r2, [r3, #1]
 615              	.L56:
 266:main.c        **** 				}
 267:main.c        **** 				Pin_1_Write(0);
 616              		.loc 1 267 0
 617 00e0 0020     		movs	r0, #0
 618 00e2 FFF7FEFF 		bl	Pin_1_Write
 619              	.LVL35:
 268:main.c        **** 				Pin_2_Write(0);
 620              		.loc 1 268 0
 621 00e6 0020     		movs	r0, #0
 622 00e8 FFF7FEFF 		bl	Pin_2_Write
 623              	.LVL36:
 269:main.c        **** 				Pin_3_Write(0);
 624              		.loc 1 269 0
 625 00ec 0020     		movs	r0, #0
 626 00ee FFF7FEFF 		bl	Pin_3_Write
 627              	.LVL37:
 270:main.c        **** 				Pin_4_Write(1);
 628              		.loc 1 270 0
 629 00f2 0120     		movs	r0, #1
 630 00f4 FFF7FEFF 		bl	Pin_4_Write
 631              	.LVL38:
 271:main.c        **** 			}
 272:main.c        **** 			break;
 632              		.loc 1 272 0
 633 00f8 08BD     		pop	{r3, pc}
 634              	.L48:
 273:main.c        **** 			case 4:
 274:main.c        **** 			{
 275:main.c        **** 				position = 0; //Reset position
 635              		.loc 1 275 0
 636 00fa 0022     		movs	r2, #0
 637 00fc 6D4B     		ldr	r3, .L113
 638 00fe 5A70     		strb	r2, [r3, #1]
 276:main.c        **** 			}
 277:main.c        **** 			break;
 639              		.loc 1 277 0
 640 0100 08BD     		pop	{r3, pc}
 641              	.L41:
 278:main.c        **** 			default:
 279:main.c        **** 			{
 280:main.c        **** 			}
 281:main.c        **** 			break;
 282:main.c        **** 			
 283:main.c        **** 		}
 284:main.c        **** 	}
 285:main.c        **** 	else if (stepMode == FULLSTEP)
 642              		.loc 1 285 0
 643 0102 6C4B     		ldr	r3, .L113
 644 0104 9B78     		ldrb	r3, [r3, #2]	@ zero_extendqisi2
ARM GAS  C:\Users\chris\AppData\Local\Temp\cc8k6IVE.s 			page 18


 645 0106 DBB2     		uxtb	r3, r3
 646 0108 012B     		cmp	r3, #1
 647 010a 7AD1     		bne	.L57
 286:main.c        **** 	{
 287:main.c        **** 		switch(position)
 648              		.loc 1 287 0
 649 010c 694B     		ldr	r3, .L113
 650 010e 5B78     		ldrb	r3, [r3, #1]	@ zero_extendqisi2
 651 0110 DBB2     		uxtb	r3, r3
 652 0112 042B     		cmp	r3, #4
 653 0114 00F22582 		bhi	.L40
 654 0118 DFE803F0 		tbb	[pc, r3]
 655              	.L59:
 656 011c 03       		.byte	(.L58-.L59)/2
 657 011d 1E       		.byte	(.L60-.L59)/2
 658 011e 39       		.byte	(.L61-.L59)/2
 659 011f 54       		.byte	(.L62-.L59)/2
 660 0120 6F       		.byte	(.L63-.L59)/2
 661 0121 00       		.p2align 1
 662              	.L58:
 288:main.c        **** 		{
 289:main.c        **** 			case 0:
 290:main.c        **** 			{
 291:main.c        **** 				if (direction == 0)
 663              		.loc 1 291 0
 664 0122 644B     		ldr	r3, .L113
 665 0124 1B78     		ldrb	r3, [r3]	@ zero_extendqisi2
 666 0126 13F0FF0F 		tst	r3, #255
 667 012a 05D1     		bne	.L64
 292:main.c        **** 				{
 293:main.c        **** 					position++;
 668              		.loc 1 293 0
 669 012c 614A     		ldr	r2, .L113
 670 012e 5378     		ldrb	r3, [r2, #1]	@ zero_extendqisi2
 671 0130 0133     		adds	r3, r3, #1
 672 0132 DBB2     		uxtb	r3, r3
 673 0134 5370     		strb	r3, [r2, #1]
 674 0136 02E0     		b	.L65
 675              	.L64:
 294:main.c        **** 				}
 295:main.c        **** 				else
 296:main.c        **** 				{
 297:main.c        **** 					position = 3;
 676              		.loc 1 297 0
 677 0138 0322     		movs	r2, #3
 678 013a 5E4B     		ldr	r3, .L113
 679 013c 5A70     		strb	r2, [r3, #1]
 680              	.L65:
 298:main.c        **** 				}
 299:main.c        **** 				Pin_1_Write(1);//A
 681              		.loc 1 299 0
 682 013e 0120     		movs	r0, #1
 683 0140 FFF7FEFF 		bl	Pin_1_Write
 684              	.LVL39:
 300:main.c        **** 				Pin_2_Write(0);//A'
 685              		.loc 1 300 0
 686 0144 0020     		movs	r0, #0
ARM GAS  C:\Users\chris\AppData\Local\Temp\cc8k6IVE.s 			page 19


 687 0146 FFF7FEFF 		bl	Pin_2_Write
 688              	.LVL40:
 301:main.c        **** 				Pin_3_Write(1);//B
 689              		.loc 1 301 0
 690 014a 0120     		movs	r0, #1
 691 014c FFF7FEFF 		bl	Pin_3_Write
 692              	.LVL41:
 302:main.c        **** 				Pin_4_Write(0);//B'
 693              		.loc 1 302 0
 694 0150 0020     		movs	r0, #0
 695 0152 FFF7FEFF 		bl	Pin_4_Write
 696              	.LVL42:
 303:main.c        **** 			}
 304:main.c        **** 			break;
 697              		.loc 1 304 0
 698 0156 08BD     		pop	{r3, pc}
 699              	.L60:
 305:main.c        **** 			case 1:
 306:main.c        **** 			{
 307:main.c        **** 				if (direction == 0)
 700              		.loc 1 307 0
 701 0158 564B     		ldr	r3, .L113
 702 015a 1B78     		ldrb	r3, [r3]	@ zero_extendqisi2
 703 015c 13F0FF0F 		tst	r3, #255
 704 0160 05D1     		bne	.L66
 308:main.c        **** 				{
 309:main.c        **** 					position++;
 705              		.loc 1 309 0
 706 0162 544A     		ldr	r2, .L113
 707 0164 5378     		ldrb	r3, [r2, #1]	@ zero_extendqisi2
 708 0166 0133     		adds	r3, r3, #1
 709 0168 DBB2     		uxtb	r3, r3
 710 016a 5370     		strb	r3, [r2, #1]
 711 016c 02E0     		b	.L67
 712              	.L66:
 310:main.c        **** 				}
 311:main.c        **** 				else
 312:main.c        **** 				{
 313:main.c        **** 					position = 0;
 713              		.loc 1 313 0
 714 016e 0022     		movs	r2, #0
 715 0170 504B     		ldr	r3, .L113
 716 0172 5A70     		strb	r2, [r3, #1]
 717              	.L67:
 314:main.c        **** 				}
 315:main.c        **** 				Pin_1_Write(0);//A
 718              		.loc 1 315 0
 719 0174 0020     		movs	r0, #0
 720 0176 FFF7FEFF 		bl	Pin_1_Write
 721              	.LVL43:
 316:main.c        **** 				Pin_2_Write(1);//A'
 722              		.loc 1 316 0
 723 017a 0120     		movs	r0, #1
 724 017c FFF7FEFF 		bl	Pin_2_Write
 725              	.LVL44:
 317:main.c        **** 				Pin_3_Write(1);//B
 726              		.loc 1 317 0
ARM GAS  C:\Users\chris\AppData\Local\Temp\cc8k6IVE.s 			page 20


 727 0180 0120     		movs	r0, #1
 728 0182 FFF7FEFF 		bl	Pin_3_Write
 729              	.LVL45:
 318:main.c        **** 				Pin_4_Write(0);//B'
 730              		.loc 1 318 0
 731 0186 0020     		movs	r0, #0
 732 0188 FFF7FEFF 		bl	Pin_4_Write
 733              	.LVL46:
 319:main.c        **** 			}
 320:main.c        **** 			break;
 734              		.loc 1 320 0
 735 018c 08BD     		pop	{r3, pc}
 736              	.L61:
 321:main.c        **** 			case 2:
 322:main.c        **** 			{
 323:main.c        **** 				if (direction == 0)
 737              		.loc 1 323 0
 738 018e 494B     		ldr	r3, .L113
 739 0190 1B78     		ldrb	r3, [r3]	@ zero_extendqisi2
 740 0192 13F0FF0F 		tst	r3, #255
 741 0196 05D1     		bne	.L68
 324:main.c        **** 				{
 325:main.c        **** 					position++;
 742              		.loc 1 325 0
 743 0198 464A     		ldr	r2, .L113
 744 019a 5378     		ldrb	r3, [r2, #1]	@ zero_extendqisi2
 745 019c 0133     		adds	r3, r3, #1
 746 019e DBB2     		uxtb	r3, r3
 747 01a0 5370     		strb	r3, [r2, #1]
 748 01a2 02E0     		b	.L69
 749              	.L68:
 326:main.c        **** 				}
 327:main.c        **** 				else
 328:main.c        **** 				{
 329:main.c        **** 					position = 1;
 750              		.loc 1 329 0
 751 01a4 0122     		movs	r2, #1
 752 01a6 434B     		ldr	r3, .L113
 753 01a8 5A70     		strb	r2, [r3, #1]
 754              	.L69:
 330:main.c        **** 				}
 331:main.c        **** 				Pin_1_Write(0);
 755              		.loc 1 331 0
 756 01aa 0020     		movs	r0, #0
 757 01ac FFF7FEFF 		bl	Pin_1_Write
 758              	.LVL47:
 332:main.c        **** 				Pin_2_Write(1);
 759              		.loc 1 332 0
 760 01b0 0120     		movs	r0, #1
 761 01b2 FFF7FEFF 		bl	Pin_2_Write
 762              	.LVL48:
 333:main.c        **** 				Pin_3_Write(0);
 763              		.loc 1 333 0
 764 01b6 0020     		movs	r0, #0
 765 01b8 FFF7FEFF 		bl	Pin_3_Write
 766              	.LVL49:
 334:main.c        **** 				Pin_4_Write(1);
ARM GAS  C:\Users\chris\AppData\Local\Temp\cc8k6IVE.s 			page 21


 767              		.loc 1 334 0
 768 01bc 0120     		movs	r0, #1
 769 01be FFF7FEFF 		bl	Pin_4_Write
 770              	.LVL50:
 335:main.c        **** 			}
 336:main.c        **** 			break;
 771              		.loc 1 336 0
 772 01c2 08BD     		pop	{r3, pc}
 773              	.L62:
 337:main.c        **** 			case 3:
 338:main.c        **** 			{
 339:main.c        **** 				if (direction == 0)
 774              		.loc 1 339 0
 775 01c4 3B4B     		ldr	r3, .L113
 776 01c6 1B78     		ldrb	r3, [r3]	@ zero_extendqisi2
 777 01c8 13F0FF0F 		tst	r3, #255
 778 01cc 05D1     		bne	.L70
 340:main.c        **** 				{
 341:main.c        **** 					position++;
 779              		.loc 1 341 0
 780 01ce 394A     		ldr	r2, .L113
 781 01d0 5378     		ldrb	r3, [r2, #1]	@ zero_extendqisi2
 782 01d2 0133     		adds	r3, r3, #1
 783 01d4 DBB2     		uxtb	r3, r3
 784 01d6 5370     		strb	r3, [r2, #1]
 785 01d8 02E0     		b	.L71
 786              	.L70:
 342:main.c        **** 				}
 343:main.c        **** 				else
 344:main.c        **** 				{
 345:main.c        **** 					position = 2;
 787              		.loc 1 345 0
 788 01da 0222     		movs	r2, #2
 789 01dc 354B     		ldr	r3, .L113
 790 01de 5A70     		strb	r2, [r3, #1]
 791              	.L71:
 346:main.c        **** 				}
 347:main.c        **** 				Pin_1_Write(1);
 792              		.loc 1 347 0
 793 01e0 0120     		movs	r0, #1
 794 01e2 FFF7FEFF 		bl	Pin_1_Write
 795              	.LVL51:
 348:main.c        **** 				Pin_2_Write(0);
 796              		.loc 1 348 0
 797 01e6 0020     		movs	r0, #0
 798 01e8 FFF7FEFF 		bl	Pin_2_Write
 799              	.LVL52:
 349:main.c        **** 				Pin_3_Write(0);
 800              		.loc 1 349 0
 801 01ec 0020     		movs	r0, #0
 802 01ee FFF7FEFF 		bl	Pin_3_Write
 803              	.LVL53:
 350:main.c        **** 				Pin_4_Write(1);
 804              		.loc 1 350 0
 805 01f2 0120     		movs	r0, #1
 806 01f4 FFF7FEFF 		bl	Pin_4_Write
 807              	.LVL54:
ARM GAS  C:\Users\chris\AppData\Local\Temp\cc8k6IVE.s 			page 22


 351:main.c        **** 			}
 352:main.c        **** 			break;
 808              		.loc 1 352 0
 809 01f8 08BD     		pop	{r3, pc}
 810              	.L63:
 353:main.c        **** 			case 4:
 354:main.c        **** 			{
 355:main.c        **** 				position = 0; //Reset position
 811              		.loc 1 355 0
 812 01fa 0022     		movs	r2, #0
 813 01fc 2D4B     		ldr	r3, .L113
 814 01fe 5A70     		strb	r2, [r3, #1]
 356:main.c        **** 			}
 357:main.c        **** 			break;
 815              		.loc 1 357 0
 816 0200 08BD     		pop	{r3, pc}
 817              	.L57:
 358:main.c        **** 			
 359:main.c        **** 			default:
 360:main.c        **** 			{
 361:main.c        **** 			}
 362:main.c        **** 			break;
 363:main.c        **** 			
 364:main.c        **** 		}
 365:main.c        **** 	}
 366:main.c        **** 	else if (stepMode == HALFSTEP)
 818              		.loc 1 366 0
 819 0202 2C4B     		ldr	r3, .L113
 820 0204 9B78     		ldrb	r3, [r3, #2]	@ zero_extendqisi2
 821 0206 DBB2     		uxtb	r3, r3
 822 0208 022B     		cmp	r3, #2
 823 020a 40F0F080 		bne	.L72
 367:main.c        **** 	{
 368:main.c        **** 		switch(position)
 824              		.loc 1 368 0
 825 020e 294B     		ldr	r3, .L113
 826 0210 5B78     		ldrb	r3, [r3, #1]	@ zero_extendqisi2
 827 0212 DBB2     		uxtb	r3, r3
 828 0214 082B     		cmp	r3, #8
 829 0216 00F2A481 		bhi	.L40
 830 021a DFE813F0 		tbh	[pc, r3, lsl #1]
 831              	.L74:
 832 021e 0900     		.2byte	(.L73-.L74)/2
 833 0220 2400     		.2byte	(.L75-.L74)/2
 834 0222 3F00     		.2byte	(.L76-.L74)/2
 835 0224 5D00     		.2byte	(.L77-.L74)/2
 836 0226 7800     		.2byte	(.L78-.L74)/2
 837 0228 9300     		.2byte	(.L79-.L74)/2
 838 022a AE00     		.2byte	(.L80-.L74)/2
 839 022c C900     		.2byte	(.L81-.L74)/2
 840 022e E400     		.2byte	(.L82-.L74)/2
 841              		.p2align 1
 842              	.L73:
 369:main.c        **** 		{
 370:main.c        **** 			case 0:
 371:main.c        **** 			{
 372:main.c        **** 				if (direction == 0)
ARM GAS  C:\Users\chris\AppData\Local\Temp\cc8k6IVE.s 			page 23


 843              		.loc 1 372 0
 844 0230 204B     		ldr	r3, .L113
 845 0232 1B78     		ldrb	r3, [r3]	@ zero_extendqisi2
 846 0234 13F0FF0F 		tst	r3, #255
 847 0238 05D1     		bne	.L83
 373:main.c        **** 				{
 374:main.c        **** 					position++;
 848              		.loc 1 374 0
 849 023a 1E4A     		ldr	r2, .L113
 850 023c 5378     		ldrb	r3, [r2, #1]	@ zero_extendqisi2
 851 023e 0133     		adds	r3, r3, #1
 852 0240 DBB2     		uxtb	r3, r3
 853 0242 5370     		strb	r3, [r2, #1]
 854 0244 02E0     		b	.L84
 855              	.L83:
 375:main.c        **** 				}
 376:main.c        **** 				else
 377:main.c        **** 				{
 378:main.c        **** 					position = 7;
 856              		.loc 1 378 0
 857 0246 0722     		movs	r2, #7
 858 0248 1A4B     		ldr	r3, .L113
 859 024a 5A70     		strb	r2, [r3, #1]
 860              	.L84:
 379:main.c        **** 				}
 380:main.c        **** 				Pin_1_Write(1);//A
 861              		.loc 1 380 0
 862 024c 0120     		movs	r0, #1
 863 024e FFF7FEFF 		bl	Pin_1_Write
 864              	.LVL55:
 381:main.c        **** 				Pin_2_Write(0);//A'
 865              		.loc 1 381 0
 866 0252 0020     		movs	r0, #0
 867 0254 FFF7FEFF 		bl	Pin_2_Write
 868              	.LVL56:
 382:main.c        **** 				Pin_3_Write(1);//B
 869              		.loc 1 382 0
 870 0258 0120     		movs	r0, #1
 871 025a FFF7FEFF 		bl	Pin_3_Write
 872              	.LVL57:
 383:main.c        **** 				Pin_4_Write(0);//B'
 873              		.loc 1 383 0
 874 025e 0020     		movs	r0, #0
 875 0260 FFF7FEFF 		bl	Pin_4_Write
 876              	.LVL58:
 384:main.c        **** 			}
 385:main.c        **** 			break;
 877              		.loc 1 385 0
 878 0264 08BD     		pop	{r3, pc}
 879              	.L75:
 386:main.c        **** 			case 1:
 387:main.c        **** 			{
 388:main.c        **** 				if (direction == 0)
 880              		.loc 1 388 0
 881 0266 134B     		ldr	r3, .L113
 882 0268 1B78     		ldrb	r3, [r3]	@ zero_extendqisi2
 883 026a 13F0FF0F 		tst	r3, #255
ARM GAS  C:\Users\chris\AppData\Local\Temp\cc8k6IVE.s 			page 24


 884 026e 05D1     		bne	.L85
 389:main.c        **** 				{
 390:main.c        **** 					position++;
 885              		.loc 1 390 0
 886 0270 104A     		ldr	r2, .L113
 887 0272 5378     		ldrb	r3, [r2, #1]	@ zero_extendqisi2
 888 0274 0133     		adds	r3, r3, #1
 889 0276 DBB2     		uxtb	r3, r3
 890 0278 5370     		strb	r3, [r2, #1]
 891 027a 02E0     		b	.L86
 892              	.L85:
 391:main.c        **** 				}
 392:main.c        **** 				else
 393:main.c        **** 				{
 394:main.c        **** 					position = 0;
 893              		.loc 1 394 0
 894 027c 0022     		movs	r2, #0
 895 027e 0D4B     		ldr	r3, .L113
 896 0280 5A70     		strb	r2, [r3, #1]
 897              	.L86:
 395:main.c        **** 				}
 396:main.c        **** 				Pin_1_Write(0);//A
 898              		.loc 1 396 0
 899 0282 0020     		movs	r0, #0
 900 0284 FFF7FEFF 		bl	Pin_1_Write
 901              	.LVL59:
 397:main.c        **** 				Pin_2_Write(0);//A'
 902              		.loc 1 397 0
 903 0288 0020     		movs	r0, #0
 904 028a FFF7FEFF 		bl	Pin_2_Write
 905              	.LVL60:
 398:main.c        **** 				Pin_3_Write(1);//B
 906              		.loc 1 398 0
 907 028e 0120     		movs	r0, #1
 908 0290 FFF7FEFF 		bl	Pin_3_Write
 909              	.LVL61:
 399:main.c        **** 				Pin_4_Write(0);//B'
 910              		.loc 1 399 0
 911 0294 0020     		movs	r0, #0
 912 0296 FFF7FEFF 		bl	Pin_4_Write
 913              	.LVL62:
 400:main.c        **** 			}
 401:main.c        **** 			break;
 914              		.loc 1 401 0
 915 029a 08BD     		pop	{r3, pc}
 916              	.L76:
 402:main.c        **** 			case 2:
 403:main.c        **** 			{
 404:main.c        **** 				if (direction == 0)
 917              		.loc 1 404 0
 918 029c 054B     		ldr	r3, .L113
 919 029e 1B78     		ldrb	r3, [r3]	@ zero_extendqisi2
 920 02a0 13F0FF0F 		tst	r3, #255
 921 02a4 08D1     		bne	.L87
 405:main.c        **** 				{
 406:main.c        **** 					position++;
 922              		.loc 1 406 0
ARM GAS  C:\Users\chris\AppData\Local\Temp\cc8k6IVE.s 			page 25


 923 02a6 034A     		ldr	r2, .L113
 924 02a8 5378     		ldrb	r3, [r2, #1]	@ zero_extendqisi2
 925 02aa 0133     		adds	r3, r3, #1
 926 02ac DBB2     		uxtb	r3, r3
 927 02ae 5370     		strb	r3, [r2, #1]
 928 02b0 05E0     		b	.L88
 929              	.L114:
 930 02b2 00BF     		.align	2
 931              	.L113:
 932 02b4 00000000 		.word	.LANCHOR1
 933              	.L87:
 407:main.c        **** 				}
 408:main.c        **** 				else
 409:main.c        **** 				{
 410:main.c        **** 					position = 1;
 934              		.loc 1 410 0
 935 02b8 0122     		movs	r2, #1
 936 02ba AA4B     		ldr	r3, .L115
 937 02bc 5A70     		strb	r2, [r3, #1]
 938              	.L88:
 411:main.c        **** 				}
 412:main.c        **** 				Pin_1_Write(0);
 939              		.loc 1 412 0
 940 02be 0020     		movs	r0, #0
 941 02c0 FFF7FEFF 		bl	Pin_1_Write
 942              	.LVL63:
 413:main.c        **** 				Pin_2_Write(1);
 943              		.loc 1 413 0
 944 02c4 0120     		movs	r0, #1
 945 02c6 FFF7FEFF 		bl	Pin_2_Write
 946              	.LVL64:
 414:main.c        **** 				Pin_3_Write(1);
 947              		.loc 1 414 0
 948 02ca 0120     		movs	r0, #1
 949 02cc FFF7FEFF 		bl	Pin_3_Write
 950              	.LVL65:
 415:main.c        **** 				Pin_4_Write(0);
 951              		.loc 1 415 0
 952 02d0 0020     		movs	r0, #0
 953 02d2 FFF7FEFF 		bl	Pin_4_Write
 954              	.LVL66:
 416:main.c        **** 			}
 417:main.c        **** 			break;
 955              		.loc 1 417 0
 956 02d6 08BD     		pop	{r3, pc}
 957              	.L77:
 418:main.c        **** 			case 3:
 419:main.c        **** 			{
 420:main.c        **** 				if (direction == 0)
 958              		.loc 1 420 0
 959 02d8 A24B     		ldr	r3, .L115
 960 02da 1B78     		ldrb	r3, [r3]	@ zero_extendqisi2
 961 02dc 13F0FF0F 		tst	r3, #255
 962 02e0 05D1     		bne	.L89
 421:main.c        **** 				{
 422:main.c        **** 					position++;
 963              		.loc 1 422 0
ARM GAS  C:\Users\chris\AppData\Local\Temp\cc8k6IVE.s 			page 26


 964 02e2 A04A     		ldr	r2, .L115
 965 02e4 5378     		ldrb	r3, [r2, #1]	@ zero_extendqisi2
 966 02e6 0133     		adds	r3, r3, #1
 967 02e8 DBB2     		uxtb	r3, r3
 968 02ea 5370     		strb	r3, [r2, #1]
 969 02ec 02E0     		b	.L90
 970              	.L89:
 423:main.c        **** 				}
 424:main.c        **** 				else
 425:main.c        **** 				{
 426:main.c        **** 					position = 2;
 971              		.loc 1 426 0
 972 02ee 0222     		movs	r2, #2
 973 02f0 9C4B     		ldr	r3, .L115
 974 02f2 5A70     		strb	r2, [r3, #1]
 975              	.L90:
 427:main.c        **** 				}
 428:main.c        **** 				Pin_1_Write(0);
 976              		.loc 1 428 0
 977 02f4 0020     		movs	r0, #0
 978 02f6 FFF7FEFF 		bl	Pin_1_Write
 979              	.LVL67:
 429:main.c        **** 				Pin_2_Write(1);
 980              		.loc 1 429 0
 981 02fa 0120     		movs	r0, #1
 982 02fc FFF7FEFF 		bl	Pin_2_Write
 983              	.LVL68:
 430:main.c        **** 				Pin_3_Write(0);
 984              		.loc 1 430 0
 985 0300 0020     		movs	r0, #0
 986 0302 FFF7FEFF 		bl	Pin_3_Write
 987              	.LVL69:
 431:main.c        **** 				Pin_4_Write(0);
 988              		.loc 1 431 0
 989 0306 0020     		movs	r0, #0
 990 0308 FFF7FEFF 		bl	Pin_4_Write
 991              	.LVL70:
 432:main.c        **** 			}
 433:main.c        **** 			break;
 992              		.loc 1 433 0
 993 030c 08BD     		pop	{r3, pc}
 994              	.L78:
 434:main.c        **** 			case 4:
 435:main.c        **** 			{
 436:main.c        **** 				if (direction == 0)
 995              		.loc 1 436 0
 996 030e 954B     		ldr	r3, .L115
 997 0310 1B78     		ldrb	r3, [r3]	@ zero_extendqisi2
 998 0312 13F0FF0F 		tst	r3, #255
 999 0316 05D1     		bne	.L91
 437:main.c        **** 				{
 438:main.c        **** 					position++;
 1000              		.loc 1 438 0
 1001 0318 924A     		ldr	r2, .L115
 1002 031a 5378     		ldrb	r3, [r2, #1]	@ zero_extendqisi2
 1003 031c 0133     		adds	r3, r3, #1
 1004 031e DBB2     		uxtb	r3, r3
ARM GAS  C:\Users\chris\AppData\Local\Temp\cc8k6IVE.s 			page 27


 1005 0320 5370     		strb	r3, [r2, #1]
 1006 0322 02E0     		b	.L92
 1007              	.L91:
 439:main.c        **** 				}
 440:main.c        **** 				else
 441:main.c        **** 				{
 442:main.c        **** 					position = 3;
 1008              		.loc 1 442 0
 1009 0324 0322     		movs	r2, #3
 1010 0326 8F4B     		ldr	r3, .L115
 1011 0328 5A70     		strb	r2, [r3, #1]
 1012              	.L92:
 443:main.c        **** 				}
 444:main.c        **** 				Pin_1_Write(0);
 1013              		.loc 1 444 0
 1014 032a 0020     		movs	r0, #0
 1015 032c FFF7FEFF 		bl	Pin_1_Write
 1016              	.LVL71:
 445:main.c        **** 				Pin_2_Write(1);
 1017              		.loc 1 445 0
 1018 0330 0120     		movs	r0, #1
 1019 0332 FFF7FEFF 		bl	Pin_2_Write
 1020              	.LVL72:
 446:main.c        **** 				Pin_3_Write(0);
 1021              		.loc 1 446 0
 1022 0336 0020     		movs	r0, #0
 1023 0338 FFF7FEFF 		bl	Pin_3_Write
 1024              	.LVL73:
 447:main.c        **** 				Pin_4_Write(0);
 1025              		.loc 1 447 0
 1026 033c 0020     		movs	r0, #0
 1027 033e FFF7FEFF 		bl	Pin_4_Write
 1028              	.LVL74:
 448:main.c        **** 			}
 449:main.c        **** 			break;
 1029              		.loc 1 449 0
 1030 0342 08BD     		pop	{r3, pc}
 1031              	.L79:
 450:main.c        **** 			case 5:
 451:main.c        **** 			{
 452:main.c        **** 				if (direction == 0)
 1032              		.loc 1 452 0
 1033 0344 874B     		ldr	r3, .L115
 1034 0346 1B78     		ldrb	r3, [r3]	@ zero_extendqisi2
 1035 0348 13F0FF0F 		tst	r3, #255
 1036 034c 05D1     		bne	.L93
 453:main.c        **** 				{
 454:main.c        **** 					position++;
 1037              		.loc 1 454 0
 1038 034e 854A     		ldr	r2, .L115
 1039 0350 5378     		ldrb	r3, [r2, #1]	@ zero_extendqisi2
 1040 0352 0133     		adds	r3, r3, #1
 1041 0354 DBB2     		uxtb	r3, r3
 1042 0356 5370     		strb	r3, [r2, #1]
 1043 0358 02E0     		b	.L94
 1044              	.L93:
 455:main.c        **** 				}
ARM GAS  C:\Users\chris\AppData\Local\Temp\cc8k6IVE.s 			page 28


 456:main.c        **** 				else
 457:main.c        **** 				{
 458:main.c        **** 					position = 4;
 1045              		.loc 1 458 0
 1046 035a 0422     		movs	r2, #4
 1047 035c 814B     		ldr	r3, .L115
 1048 035e 5A70     		strb	r2, [r3, #1]
 1049              	.L94:
 459:main.c        **** 				}
 460:main.c        **** 				Pin_1_Write(0);
 1050              		.loc 1 460 0
 1051 0360 0020     		movs	r0, #0
 1052 0362 FFF7FEFF 		bl	Pin_1_Write
 1053              	.LVL75:
 461:main.c        **** 				Pin_2_Write(0);
 1054              		.loc 1 461 0
 1055 0366 0020     		movs	r0, #0
 1056 0368 FFF7FEFF 		bl	Pin_2_Write
 1057              	.LVL76:
 462:main.c        **** 				Pin_3_Write(0);
 1058              		.loc 1 462 0
 1059 036c 0020     		movs	r0, #0
 1060 036e FFF7FEFF 		bl	Pin_3_Write
 1061              	.LVL77:
 463:main.c        **** 				Pin_4_Write(1);
 1062              		.loc 1 463 0
 1063 0372 0120     		movs	r0, #1
 1064 0374 FFF7FEFF 		bl	Pin_4_Write
 1065              	.LVL78:
 464:main.c        **** 			}
 465:main.c        **** 			break;
 1066              		.loc 1 465 0
 1067 0378 08BD     		pop	{r3, pc}
 1068              	.L80:
 466:main.c        **** 			case 6:
 467:main.c        **** 			{
 468:main.c        **** 				if (direction == 0)
 1069              		.loc 1 468 0
 1070 037a 7A4B     		ldr	r3, .L115
 1071 037c 1B78     		ldrb	r3, [r3]	@ zero_extendqisi2
 1072 037e 13F0FF0F 		tst	r3, #255
 1073 0382 05D1     		bne	.L95
 469:main.c        **** 				{
 470:main.c        **** 					position++;
 1074              		.loc 1 470 0
 1075 0384 774A     		ldr	r2, .L115
 1076 0386 5378     		ldrb	r3, [r2, #1]	@ zero_extendqisi2
 1077 0388 0133     		adds	r3, r3, #1
 1078 038a DBB2     		uxtb	r3, r3
 1079 038c 5370     		strb	r3, [r2, #1]
 1080 038e 02E0     		b	.L96
 1081              	.L95:
 471:main.c        **** 				}
 472:main.c        **** 				else
 473:main.c        **** 				{
 474:main.c        **** 					position = 5;
 1082              		.loc 1 474 0
ARM GAS  C:\Users\chris\AppData\Local\Temp\cc8k6IVE.s 			page 29


 1083 0390 0522     		movs	r2, #5
 1084 0392 744B     		ldr	r3, .L115
 1085 0394 5A70     		strb	r2, [r3, #1]
 1086              	.L96:
 475:main.c        **** 				}
 476:main.c        **** 				Pin_1_Write(1);
 1087              		.loc 1 476 0
 1088 0396 0120     		movs	r0, #1
 1089 0398 FFF7FEFF 		bl	Pin_1_Write
 1090              	.LVL79:
 477:main.c        **** 				Pin_2_Write(0);
 1091              		.loc 1 477 0
 1092 039c 0020     		movs	r0, #0
 1093 039e FFF7FEFF 		bl	Pin_2_Write
 1094              	.LVL80:
 478:main.c        **** 				Pin_3_Write(0);
 1095              		.loc 1 478 0
 1096 03a2 0020     		movs	r0, #0
 1097 03a4 FFF7FEFF 		bl	Pin_3_Write
 1098              	.LVL81:
 479:main.c        **** 				Pin_4_Write(1);
 1099              		.loc 1 479 0
 1100 03a8 0120     		movs	r0, #1
 1101 03aa FFF7FEFF 		bl	Pin_4_Write
 1102              	.LVL82:
 480:main.c        **** 			}
 481:main.c        **** 			break;
 1103              		.loc 1 481 0
 1104 03ae 08BD     		pop	{r3, pc}
 1105              	.L81:
 482:main.c        **** 			case 7:
 483:main.c        **** 			{
 484:main.c        **** 				if (direction == 0)
 1106              		.loc 1 484 0
 1107 03b0 6C4B     		ldr	r3, .L115
 1108 03b2 1B78     		ldrb	r3, [r3]	@ zero_extendqisi2
 1109 03b4 13F0FF0F 		tst	r3, #255
 1110 03b8 05D1     		bne	.L97
 485:main.c        **** 				{
 486:main.c        **** 					position++;
 1111              		.loc 1 486 0
 1112 03ba 6A4A     		ldr	r2, .L115
 1113 03bc 5378     		ldrb	r3, [r2, #1]	@ zero_extendqisi2
 1114 03be 0133     		adds	r3, r3, #1
 1115 03c0 DBB2     		uxtb	r3, r3
 1116 03c2 5370     		strb	r3, [r2, #1]
 1117 03c4 02E0     		b	.L98
 1118              	.L97:
 487:main.c        **** 				}
 488:main.c        **** 				else
 489:main.c        **** 				{
 490:main.c        **** 					position = 6;
 1119              		.loc 1 490 0
 1120 03c6 0622     		movs	r2, #6
 1121 03c8 664B     		ldr	r3, .L115
 1122 03ca 5A70     		strb	r2, [r3, #1]
 1123              	.L98:
ARM GAS  C:\Users\chris\AppData\Local\Temp\cc8k6IVE.s 			page 30


 491:main.c        **** 				}
 492:main.c        **** 				Pin_1_Write(1);
 1124              		.loc 1 492 0
 1125 03cc 0120     		movs	r0, #1
 1126 03ce FFF7FEFF 		bl	Pin_1_Write
 1127              	.LVL83:
 493:main.c        **** 				Pin_2_Write(0);
 1128              		.loc 1 493 0
 1129 03d2 0020     		movs	r0, #0
 1130 03d4 FFF7FEFF 		bl	Pin_2_Write
 1131              	.LVL84:
 494:main.c        **** 				Pin_3_Write(0);
 1132              		.loc 1 494 0
 1133 03d8 0020     		movs	r0, #0
 1134 03da FFF7FEFF 		bl	Pin_3_Write
 1135              	.LVL85:
 495:main.c        **** 				Pin_4_Write(1);
 1136              		.loc 1 495 0
 1137 03de 0120     		movs	r0, #1
 1138 03e0 FFF7FEFF 		bl	Pin_4_Write
 1139              	.LVL86:
 496:main.c        **** 			}
 497:main.c        **** 			break;
 1140              		.loc 1 497 0
 1141 03e4 08BD     		pop	{r3, pc}
 1142              	.L82:
 498:main.c        **** 			case 8:
 499:main.c        **** 			{
 500:main.c        **** 				position = 0; //Reset position
 1143              		.loc 1 500 0
 1144 03e6 0022     		movs	r2, #0
 1145 03e8 5E4B     		ldr	r3, .L115
 1146 03ea 5A70     		strb	r2, [r3, #1]
 501:main.c        **** 			}
 502:main.c        **** 			break;
 1147              		.loc 1 502 0
 1148 03ec 08BD     		pop	{r3, pc}
 1149              	.L72:
 503:main.c        **** 			default:
 504:main.c        **** 			{
 505:main.c        **** 			}
 506:main.c        **** 			break;
 507:main.c        **** 			
 508:main.c        **** 		}
 509:main.c        **** 	}
 510:main.c        **** 	else if (stepMode == SNGCLOCK)
 1150              		.loc 1 510 0
 1151 03ee 5D4B     		ldr	r3, .L115
 1152 03f0 9B78     		ldrb	r3, [r3, #2]	@ zero_extendqisi2
 1153 03f2 DBB2     		uxtb	r3, r3
 1154 03f4 032B     		cmp	r3, #3
 1155 03f6 58D1     		bne	.L99
 511:main.c        **** 	{
 512:main.c        **** 		switch(position)
 1156              		.loc 1 512 0
 1157 03f8 5A4B     		ldr	r3, .L115
 1158 03fa 5B78     		ldrb	r3, [r3, #1]	@ zero_extendqisi2
ARM GAS  C:\Users\chris\AppData\Local\Temp\cc8k6IVE.s 			page 31


 1159 03fc DBB2     		uxtb	r3, r3
 1160 03fe 042B     		cmp	r3, #4
 1161 0400 00F2AF80 		bhi	.L40
 1162 0404 DFE803F0 		tbb	[pc, r3]
 1163              	.L101:
 1164 0408 03       		.byte	(.L100-.L101)/2
 1165 0409 15       		.byte	(.L102-.L101)/2
 1166 040a 27       		.byte	(.L103-.L101)/2
 1167 040b 39       		.byte	(.L104-.L101)/2
 1168 040c 4B       		.byte	(.L105-.L101)/2
 1169 040d 00       		.p2align 1
 1170              	.L100:
 513:main.c        **** 		{
 514:main.c        **** 			case 0:
 515:main.c        **** 			{
 516:main.c        **** 				position++;
 1171              		.loc 1 516 0
 1172 040e 554A     		ldr	r2, .L115
 1173 0410 5378     		ldrb	r3, [r2, #1]	@ zero_extendqisi2
 1174 0412 0133     		adds	r3, r3, #1
 1175 0414 DBB2     		uxtb	r3, r3
 1176 0416 5370     		strb	r3, [r2, #1]
 517:main.c        **** 				Pin_1_Write(1);//A
 1177              		.loc 1 517 0
 1178 0418 0120     		movs	r0, #1
 1179 041a FFF7FEFF 		bl	Pin_1_Write
 1180              	.LVL87:
 518:main.c        **** 				Pin_2_Write(0);//A'
 1181              		.loc 1 518 0
 1182 041e 0020     		movs	r0, #0
 1183 0420 FFF7FEFF 		bl	Pin_2_Write
 1184              	.LVL88:
 519:main.c        **** 				Pin_3_Write(1);//B
 1185              		.loc 1 519 0
 1186 0424 0120     		movs	r0, #1
 1187 0426 FFF7FEFF 		bl	Pin_3_Write
 1188              	.LVL89:
 520:main.c        **** 				Pin_4_Write(0);//B'
 1189              		.loc 1 520 0
 1190 042a 0020     		movs	r0, #0
 1191 042c FFF7FEFF 		bl	Pin_4_Write
 1192              	.LVL90:
 521:main.c        **** 			}
 522:main.c        **** 			break;
 1193              		.loc 1 522 0
 1194 0430 08BD     		pop	{r3, pc}
 1195              	.L102:
 523:main.c        **** 			case 1:
 524:main.c        **** 			{
 525:main.c        **** 				position++;
 1196              		.loc 1 525 0
 1197 0432 4C4A     		ldr	r2, .L115
 1198 0434 5378     		ldrb	r3, [r2, #1]	@ zero_extendqisi2
 1199 0436 0133     		adds	r3, r3, #1
 1200 0438 DBB2     		uxtb	r3, r3
 1201 043a 5370     		strb	r3, [r2, #1]
 526:main.c        **** 				Pin_1_Write(0);//A
ARM GAS  C:\Users\chris\AppData\Local\Temp\cc8k6IVE.s 			page 32


 1202              		.loc 1 526 0
 1203 043c 0020     		movs	r0, #0
 1204 043e FFF7FEFF 		bl	Pin_1_Write
 1205              	.LVL91:
 527:main.c        **** 				Pin_2_Write(1);//A'
 1206              		.loc 1 527 0
 1207 0442 0120     		movs	r0, #1
 1208 0444 FFF7FEFF 		bl	Pin_2_Write
 1209              	.LVL92:
 528:main.c        **** 				Pin_3_Write(1);//B
 1210              		.loc 1 528 0
 1211 0448 0120     		movs	r0, #1
 1212 044a FFF7FEFF 		bl	Pin_3_Write
 1213              	.LVL93:
 529:main.c        **** 				Pin_4_Write(0);//B'
 1214              		.loc 1 529 0
 1215 044e 0020     		movs	r0, #0
 1216 0450 FFF7FEFF 		bl	Pin_4_Write
 1217              	.LVL94:
 530:main.c        **** 			}
 531:main.c        **** 			break;
 1218              		.loc 1 531 0
 1219 0454 08BD     		pop	{r3, pc}
 1220              	.L103:
 532:main.c        **** 			case 2:
 533:main.c        **** 			{
 534:main.c        **** 				position++;
 1221              		.loc 1 534 0
 1222 0456 434A     		ldr	r2, .L115
 1223 0458 5378     		ldrb	r3, [r2, #1]	@ zero_extendqisi2
 1224 045a 0133     		adds	r3, r3, #1
 1225 045c DBB2     		uxtb	r3, r3
 1226 045e 5370     		strb	r3, [r2, #1]
 535:main.c        **** 				Pin_1_Write(0);
 1227              		.loc 1 535 0
 1228 0460 0020     		movs	r0, #0
 1229 0462 FFF7FEFF 		bl	Pin_1_Write
 1230              	.LVL95:
 536:main.c        **** 				Pin_2_Write(1);
 1231              		.loc 1 536 0
 1232 0466 0120     		movs	r0, #1
 1233 0468 FFF7FEFF 		bl	Pin_2_Write
 1234              	.LVL96:
 537:main.c        **** 				Pin_3_Write(0);
 1235              		.loc 1 537 0
 1236 046c 0020     		movs	r0, #0
 1237 046e FFF7FEFF 		bl	Pin_3_Write
 1238              	.LVL97:
 538:main.c        **** 				Pin_4_Write(1);
 1239              		.loc 1 538 0
 1240 0472 0120     		movs	r0, #1
 1241 0474 FFF7FEFF 		bl	Pin_4_Write
 1242              	.LVL98:
 539:main.c        **** 			}
 540:main.c        **** 			break;
 1243              		.loc 1 540 0
 1244 0478 08BD     		pop	{r3, pc}
ARM GAS  C:\Users\chris\AppData\Local\Temp\cc8k6IVE.s 			page 33


 1245              	.L104:
 541:main.c        **** 			case 3:
 542:main.c        **** 			{
 543:main.c        **** 				position++;
 1246              		.loc 1 543 0
 1247 047a 3A4A     		ldr	r2, .L115
 1248 047c 5378     		ldrb	r3, [r2, #1]	@ zero_extendqisi2
 1249 047e 0133     		adds	r3, r3, #1
 1250 0480 DBB2     		uxtb	r3, r3
 1251 0482 5370     		strb	r3, [r2, #1]
 544:main.c        **** 				Pin_1_Write(1);
 1252              		.loc 1 544 0
 1253 0484 0120     		movs	r0, #1
 1254 0486 FFF7FEFF 		bl	Pin_1_Write
 1255              	.LVL99:
 545:main.c        **** 				Pin_2_Write(0);
 1256              		.loc 1 545 0
 1257 048a 0020     		movs	r0, #0
 1258 048c FFF7FEFF 		bl	Pin_2_Write
 1259              	.LVL100:
 546:main.c        **** 				Pin_3_Write(0);
 1260              		.loc 1 546 0
 1261 0490 0020     		movs	r0, #0
 1262 0492 FFF7FEFF 		bl	Pin_3_Write
 1263              	.LVL101:
 547:main.c        **** 				Pin_4_Write(1);
 1264              		.loc 1 547 0
 1265 0496 0120     		movs	r0, #1
 1266 0498 FFF7FEFF 		bl	Pin_4_Write
 1267              	.LVL102:
 548:main.c        **** 			}
 549:main.c        **** 			break;
 1268              		.loc 1 549 0
 1269 049c 08BD     		pop	{r3, pc}
 1270              	.L105:
 550:main.c        **** 			case 4:
 551:main.c        **** 			{
 552:main.c        **** 				position = 0;
 1271              		.loc 1 552 0
 1272 049e 314B     		ldr	r3, .L115
 1273 04a0 0022     		movs	r2, #0
 1274 04a2 5A70     		strb	r2, [r3, #1]
 553:main.c        **** 				stepMode = STOP; //Stop after single step
 1275              		.loc 1 553 0
 1276 04a4 0522     		movs	r2, #5
 1277 04a6 9A70     		strb	r2, [r3, #2]
 554:main.c        **** 			}
 555:main.c        **** 			break;
 1278              		.loc 1 555 0
 1279 04a8 08BD     		pop	{r3, pc}
 1280              	.L99:
 556:main.c        **** 			
 557:main.c        **** 			default:
 558:main.c        **** 			{
 559:main.c        **** 			}
 560:main.c        **** 			break;
 561:main.c        **** 			
ARM GAS  C:\Users\chris\AppData\Local\Temp\cc8k6IVE.s 			page 34


 562:main.c        **** 		}
 563:main.c        **** 	}
 564:main.c        **** 	else if (stepMode == SNGCNTCLOCK)
 1281              		.loc 1 564 0
 1282 04aa 2E4B     		ldr	r3, .L115
 1283 04ac 9B78     		ldrb	r3, [r3, #2]	@ zero_extendqisi2
 1284 04ae DBB2     		uxtb	r3, r3
 1285 04b0 042B     		cmp	r3, #4
 1286 04b2 56D1     		bne	.L40
 565:main.c        **** 	{
 566:main.c        **** 		switch(position)
 1287              		.loc 1 566 0
 1288 04b4 2B4B     		ldr	r3, .L115
 1289 04b6 5B78     		ldrb	r3, [r3, #1]	@ zero_extendqisi2
 1290 04b8 DBB2     		uxtb	r3, r3
 1291 04ba 042B     		cmp	r3, #4
 1292 04bc 51D8     		bhi	.L40
 1293 04be DFE803F0 		tbb	[pc, r3]
 1294              	.L107:
 1295 04c2 03       		.byte	(.L106-.L107)/2
 1296 04c3 15       		.byte	(.L108-.L107)/2
 1297 04c4 27       		.byte	(.L109-.L107)/2
 1298 04c5 39       		.byte	(.L110-.L107)/2
 1299 04c6 4B       		.byte	(.L111-.L107)/2
 1300 04c7 00       		.p2align 1
 1301              	.L106:
 567:main.c        **** 		{
 568:main.c        **** 			case 0:
 569:main.c        **** 			{
 570:main.c        **** 				position++;
 1302              		.loc 1 570 0
 1303 04c8 264A     		ldr	r2, .L115
 1304 04ca 5378     		ldrb	r3, [r2, #1]	@ zero_extendqisi2
 1305 04cc 0133     		adds	r3, r3, #1
 1306 04ce DBB2     		uxtb	r3, r3
 1307 04d0 5370     		strb	r3, [r2, #1]
 571:main.c        **** 				Pin_1_Write(1);//A
 1308              		.loc 1 571 0
 1309 04d2 0120     		movs	r0, #1
 1310 04d4 FFF7FEFF 		bl	Pin_1_Write
 1311              	.LVL103:
 572:main.c        **** 				Pin_2_Write(0);//A'
 1312              		.loc 1 572 0
 1313 04d8 0020     		movs	r0, #0
 1314 04da FFF7FEFF 		bl	Pin_2_Write
 1315              	.LVL104:
 573:main.c        **** 				Pin_3_Write(0);//B
 1316              		.loc 1 573 0
 1317 04de 0020     		movs	r0, #0
 1318 04e0 FFF7FEFF 		bl	Pin_3_Write
 1319              	.LVL105:
 574:main.c        **** 				Pin_4_Write(1);//B'
 1320              		.loc 1 574 0
 1321 04e4 0120     		movs	r0, #1
 1322 04e6 FFF7FEFF 		bl	Pin_4_Write
 1323              	.LVL106:
 575:main.c        **** 			}
ARM GAS  C:\Users\chris\AppData\Local\Temp\cc8k6IVE.s 			page 35


 576:main.c        **** 			break;
 1324              		.loc 1 576 0
 1325 04ea 08BD     		pop	{r3, pc}
 1326              	.L108:
 577:main.c        **** 			case 1:
 578:main.c        **** 			{
 579:main.c        **** 				position++;
 1327              		.loc 1 579 0
 1328 04ec 1D4A     		ldr	r2, .L115
 1329 04ee 5378     		ldrb	r3, [r2, #1]	@ zero_extendqisi2
 1330 04f0 0133     		adds	r3, r3, #1
 1331 04f2 DBB2     		uxtb	r3, r3
 1332 04f4 5370     		strb	r3, [r2, #1]
 580:main.c        **** 				Pin_1_Write(0);//A
 1333              		.loc 1 580 0
 1334 04f6 0020     		movs	r0, #0
 1335 04f8 FFF7FEFF 		bl	Pin_1_Write
 1336              	.LVL107:
 581:main.c        **** 				Pin_2_Write(1);//A'
 1337              		.loc 1 581 0
 1338 04fc 0120     		movs	r0, #1
 1339 04fe FFF7FEFF 		bl	Pin_2_Write
 1340              	.LVL108:
 582:main.c        **** 				Pin_3_Write(0);//B
 1341              		.loc 1 582 0
 1342 0502 0020     		movs	r0, #0
 1343 0504 FFF7FEFF 		bl	Pin_3_Write
 1344              	.LVL109:
 583:main.c        **** 				Pin_4_Write(1);//B'
 1345              		.loc 1 583 0
 1346 0508 0120     		movs	r0, #1
 1347 050a FFF7FEFF 		bl	Pin_4_Write
 1348              	.LVL110:
 584:main.c        **** 			}
 585:main.c        **** 			break;
 1349              		.loc 1 585 0
 1350 050e 08BD     		pop	{r3, pc}
 1351              	.L109:
 586:main.c        **** 			case 2:
 587:main.c        **** 			{
 588:main.c        **** 				position++;
 1352              		.loc 1 588 0
 1353 0510 144A     		ldr	r2, .L115
 1354 0512 5378     		ldrb	r3, [r2, #1]	@ zero_extendqisi2
 1355 0514 0133     		adds	r3, r3, #1
 1356 0516 DBB2     		uxtb	r3, r3
 1357 0518 5370     		strb	r3, [r2, #1]
 589:main.c        **** 				Pin_1_Write(0);
 1358              		.loc 1 589 0
 1359 051a 0020     		movs	r0, #0
 1360 051c FFF7FEFF 		bl	Pin_1_Write
 1361              	.LVL111:
 590:main.c        **** 				Pin_2_Write(1);
 1362              		.loc 1 590 0
 1363 0520 0120     		movs	r0, #1
 1364 0522 FFF7FEFF 		bl	Pin_2_Write
 1365              	.LVL112:
ARM GAS  C:\Users\chris\AppData\Local\Temp\cc8k6IVE.s 			page 36


 591:main.c        **** 				Pin_3_Write(1);
 1366              		.loc 1 591 0
 1367 0526 0120     		movs	r0, #1
 1368 0528 FFF7FEFF 		bl	Pin_3_Write
 1369              	.LVL113:
 592:main.c        **** 				Pin_4_Write(0);
 1370              		.loc 1 592 0
 1371 052c 0020     		movs	r0, #0
 1372 052e FFF7FEFF 		bl	Pin_4_Write
 1373              	.LVL114:
 593:main.c        **** 			}
 594:main.c        **** 			break;
 1374              		.loc 1 594 0
 1375 0532 08BD     		pop	{r3, pc}
 1376              	.L110:
 595:main.c        **** 			case 3:
 596:main.c        **** 			{
 597:main.c        **** 				position++;
 1377              		.loc 1 597 0
 1378 0534 0B4A     		ldr	r2, .L115
 1379 0536 5378     		ldrb	r3, [r2, #1]	@ zero_extendqisi2
 1380 0538 0133     		adds	r3, r3, #1
 1381 053a DBB2     		uxtb	r3, r3
 1382 053c 5370     		strb	r3, [r2, #1]
 598:main.c        **** 				Pin_1_Write(1);
 1383              		.loc 1 598 0
 1384 053e 0120     		movs	r0, #1
 1385 0540 FFF7FEFF 		bl	Pin_1_Write
 1386              	.LVL115:
 599:main.c        **** 				Pin_2_Write(0);
 1387              		.loc 1 599 0
 1388 0544 0020     		movs	r0, #0
 1389 0546 FFF7FEFF 		bl	Pin_2_Write
 1390              	.LVL116:
 600:main.c        **** 				Pin_3_Write(1);
 1391              		.loc 1 600 0
 1392 054a 0120     		movs	r0, #1
 1393 054c FFF7FEFF 		bl	Pin_3_Write
 1394              	.LVL117:
 601:main.c        **** 				Pin_4_Write(0);
 1395              		.loc 1 601 0
 1396 0550 0020     		movs	r0, #0
 1397 0552 FFF7FEFF 		bl	Pin_4_Write
 1398              	.LVL118:
 602:main.c        **** 			}
 603:main.c        **** 			break;
 1399              		.loc 1 603 0
 1400 0556 08BD     		pop	{r3, pc}
 1401              	.L111:
 604:main.c        **** 			case 4:
 605:main.c        **** 			{
 606:main.c        **** 				position = 0;
 1402              		.loc 1 606 0
 1403 0558 024B     		ldr	r3, .L115
 1404 055a 0022     		movs	r2, #0
 1405 055c 5A70     		strb	r2, [r3, #1]
 607:main.c        **** 				stepMode = STOP; //Stop after single step
ARM GAS  C:\Users\chris\AppData\Local\Temp\cc8k6IVE.s 			page 37


 1406              		.loc 1 607 0
 1407 055e 0522     		movs	r2, #5
 1408 0560 9A70     		strb	r2, [r3, #2]
 1409              	.L40:
 1410 0562 08BD     		pop	{r3, pc}
 1411              	.L116:
 1412              		.align	2
 1413              	.L115:
 1414 0564 00000000 		.word	.LANCHOR1
 1415              		.cfi_endproc
 1416              	.LFE71:
 1417              		.size	step, .-step
 1418              		.section	.text.main,"ax",%progbits
 1419              		.align	2
 1420              		.global	main
 1421              		.thumb
 1422              		.thumb_func
 1423              		.type	main, %function
 1424              	main:
 1425              	.LFB65:
  58:main.c        ****     CyGlobalIntEnable; /* Enable global interrupts. */
 1426              		.loc 1 58 0
 1427              		.cfi_startproc
 1428              		@ Volatile: function does not return.
 1429              		@ args = 0, pretend = 0, frame = 0
 1430              		@ frame_needed = 0, uses_anonymous_args = 0
 1431 0000 08B5     		push	{r3, lr}
 1432              		.cfi_def_cfa_offset 8
 1433              		.cfi_offset 3, -8
 1434              		.cfi_offset 14, -4
  59:main.c        **** 
 1435              		.loc 1 59 0
 1436              		.syntax unified
 1437              	@ 59 "main.c" 1
 1438 0002 62B6     		CPSIE   i
 1439              	@ 0 "" 2
  62:main.c        **** 	//isr_timer_StartEx(ISR_Timer_TC);
 1440              		.loc 1 62 0
 1441              		.thumb
 1442              		.syntax unified
 1443 0004 1648     		ldr	r0, .L120
 1444 0006 FFF7FEFF 		bl	isr_uart_StartEx
 1445              	.LVL119:
  64:main.c        **** 	//Timer_Start();
 1446              		.loc 1 64 0
 1447 000a FFF7FEFF 		bl	UART_Start
 1448              	.LVL120:
  68:main.c        ****     UART_PutString("0: Stop\r\n");
 1449              		.loc 1 68 0
 1450 000e 1548     		ldr	r0, .L120+4
 1451 0010 FFF7FEFF 		bl	UART_PutString
 1452              	.LVL121:
  69:main.c        ****     UART_PutString("1: Drive forwards\r\n");
 1453              		.loc 1 69 0
 1454 0014 1448     		ldr	r0, .L120+8
 1455 0016 FFF7FEFF 		bl	UART_PutString
 1456              	.LVL122:
ARM GAS  C:\Users\chris\AppData\Local\Temp\cc8k6IVE.s 			page 38


  70:main.c        ****     UART_PutString("2: Drive backwards\r\n");
 1457              		.loc 1 70 0
 1458 001a 1448     		ldr	r0, .L120+12
 1459 001c FFF7FEFF 		bl	UART_PutString
 1460              	.LVL123:
  71:main.c        ****     UART_PutString("q: Decrease speed\r\n");
 1461              		.loc 1 71 0
 1462 0020 1348     		ldr	r0, .L120+16
 1463 0022 FFF7FEFF 		bl	UART_PutString
 1464              	.LVL124:
  72:main.c        ****     UART_PutString("w: Increase speed\r\n");
 1465              		.loc 1 72 0
 1466 0026 1348     		ldr	r0, .L120+20
 1467 0028 FFF7FEFF 		bl	UART_PutString
 1468              	.LVL125:
  73:main.c        **** 	UART_PutString("5: Single rotation clockwise\r\n");
 1469              		.loc 1 73 0
 1470 002c 1248     		ldr	r0, .L120+24
 1471 002e FFF7FEFF 		bl	UART_PutString
 1472              	.LVL126:
  74:main.c        **** 	UART_PutString("6: Single rotation counter clockwise\r\n");
 1473              		.loc 1 74 0
 1474 0032 1248     		ldr	r0, .L120+28
 1475 0034 FFF7FEFF 		bl	UART_PutString
 1476              	.LVL127:
  75:main.c        **** 	UART_PutString("7: Wave Drive\r\n");
 1477              		.loc 1 75 0
 1478 0038 1148     		ldr	r0, .L120+32
 1479 003a FFF7FEFF 		bl	UART_PutString
 1480              	.LVL128:
  76:main.c        **** 	UART_PutString("8: Full Drive\r\n");
 1481              		.loc 1 76 0
 1482 003e 1148     		ldr	r0, .L120+36
 1483 0040 FFF7FEFF 		bl	UART_PutString
 1484              	.LVL129:
  77:main.c        **** 	UART_PutString("9: Half Step Drive\r\n");
 1485              		.loc 1 77 0
 1486 0044 1048     		ldr	r0, .L120+40
 1487 0046 FFF7FEFF 		bl	UART_PutString
 1488              	.LVL130:
  78:main.c        **** 
 1489              		.loc 1 78 0
 1490 004a 1048     		ldr	r0, .L120+44
 1491 004c FFF7FEFF 		bl	UART_PutString
 1492              	.LVL131:
 1493              	.L118:
  82:main.c        **** 		step();
 1494              		.loc 1 82 0 discriminator 1
 1495 0050 0F4B     		ldr	r3, .L120+48
 1496 0052 1868     		ldr	r0, [r3]
 1497 0054 FFF7FEFF 		bl	CyDelay
 1498              	.LVL132:
  83:main.c        ****         /* Place your application code here. */
 1499              		.loc 1 83 0 discriminator 1
 1500 0058 FFF7FEFF 		bl	step
 1501              	.LVL133:
 1502 005c F8E7     		b	.L118
ARM GAS  C:\Users\chris\AppData\Local\Temp\cc8k6IVE.s 			page 39


 1503              	.L121:
 1504 005e 00BF     		.align	2
 1505              	.L120:
 1506 0060 00000000 		.word	ISR_UART_rx_handler
 1507 0064 A8000000 		.word	.LC8
 1508 0068 CC000000 		.word	.LC9
 1509 006c D8000000 		.word	.LC10
 1510 0070 EC000000 		.word	.LC11
 1511 0074 04010000 		.word	.LC12
 1512 0078 18010000 		.word	.LC13
 1513 007c 2C010000 		.word	.LC14
 1514 0080 4C010000 		.word	.LC15
 1515 0084 74010000 		.word	.LC16
 1516 0088 84010000 		.word	.LC17
 1517 008c 94010000 		.word	.LC18
 1518 0090 00000000 		.word	.LANCHOR0
 1519              		.cfi_endproc
 1520              	.LFE65:
 1521              		.size	main, .-main
 1522              		.global	delay
 1523              		.global	direction
 1524              		.global	position
 1525              		.global	stepMode
 1526              		.data
 1527              		.align	2
 1528              		.set	.LANCHOR0,. + 0
 1529              		.type	delay, %object
 1530              		.size	delay, 4
 1531              	delay:
 1532 0000 05000000 		.word	5
 1533              		.section	.rodata.str1.4,"aMS",%progbits,1
 1534              		.align	2
 1535              	.LC0:
 1536 0000 44656372 		.ascii	"Decreasing speed\015\012\000"
 1536      65617369 
 1536      6E672073 
 1536      70656564 
 1536      0D0A00
 1537 0013 00       		.space	1
 1538              	.LC1:
 1539 0014 496E6372 		.ascii	"Increasing speed\015\012\000"
 1539      65617369 
 1539      6E672073 
 1539      70656564 
 1539      0D0A00
 1540 0027 00       		.space	1
 1541              	.LC2:
 1542 0028 53657420 		.ascii	"Set direction: forwards\015\012\000"
 1542      64697265 
 1542      6374696F 
 1542      6E3A2066 
 1542      6F727761 
 1543 0042 0000     		.space	2
 1544              	.LC3:
 1545 0044 53657420 		.ascii	"Set direction: backwards\015\012\000"
 1545      64697265 
 1545      6374696F 
ARM GAS  C:\Users\chris\AppData\Local\Temp\cc8k6IVE.s 			page 40


 1545      6E3A2062 
 1545      61636B77 
 1546 005f 00       		.space	1
 1547              	.LC4:
 1548 0060 53696E67 		.ascii	"Single rotation clockwise\015\012\000"
 1548      6C652072 
 1548      6F746174 
 1548      696F6E20 
 1548      636C6F63 
 1549              	.LC5:
 1550 007c 57617665 		.ascii	"Wave mode\015\012\000"
 1550      206D6F64 
 1550      650D0A00 
 1551              	.LC6:
 1552 0088 46756C6C 		.ascii	"Full step\015\012\000"
 1552      20737465 
 1552      700D0A00 
 1553              	.LC7:
 1554 0094 48616C66 		.ascii	"Half-drive step\015\012\000"
 1554      2D647269 
 1554      76652073 
 1554      7465700D 
 1554      0A00
 1555 00a6 0000     		.space	2
 1556              	.LC8:
 1557 00a8 53746570 		.ascii	"Stepper motor application started\015\012\000"
 1557      70657220 
 1557      6D6F746F 
 1557      72206170 
 1557      706C6963 
 1558              	.LC9:
 1559 00cc 303A2053 		.ascii	"0: Stop\015\012\000"
 1559      746F700D 
 1559      0A00
 1560 00d6 0000     		.space	2
 1561              	.LC10:
 1562 00d8 313A2044 		.ascii	"1: Drive forwards\015\012\000"
 1562      72697665 
 1562      20666F72 
 1562      77617264 
 1562      730D0A00 
 1563              	.LC11:
 1564 00ec 323A2044 		.ascii	"2: Drive backwards\015\012\000"
 1564      72697665 
 1564      20626163 
 1564      6B776172 
 1564      64730D0A 
 1565 0101 000000   		.space	3
 1566              	.LC12:
 1567 0104 713A2044 		.ascii	"q: Decrease speed\015\012\000"
 1567      65637265 
 1567      61736520 
 1567      73706565 
 1567      640D0A00 
 1568              	.LC13:
 1569 0118 773A2049 		.ascii	"w: Increase speed\015\012\000"
 1569      6E637265 
ARM GAS  C:\Users\chris\AppData\Local\Temp\cc8k6IVE.s 			page 41


 1569      61736520 
 1569      73706565 
 1569      640D0A00 
 1570              	.LC14:
 1571 012c 353A2053 		.ascii	"5: Single rotation clockwise\015\012\000"
 1571      696E676C 
 1571      6520726F 
 1571      74617469 
 1571      6F6E2063 
 1572 014b 00       		.space	1
 1573              	.LC15:
 1574 014c 363A2053 		.ascii	"6: Single rotation counter clockwise\015\012\000"
 1574      696E676C 
 1574      6520726F 
 1574      74617469 
 1574      6F6E2063 
 1575 0173 00       		.space	1
 1576              	.LC16:
 1577 0174 373A2057 		.ascii	"7: Wave Drive\015\012\000"
 1577      61766520 
 1577      44726976 
 1577      650D0A00 
 1578              	.LC17:
 1579 0184 383A2046 		.ascii	"8: Full Drive\015\012\000"
 1579      756C6C20 
 1579      44726976 
 1579      650D0A00 
 1580              	.LC18:
 1581 0194 393A2048 		.ascii	"9: Half Step Drive\015\012\000"
 1581      616C6620 
 1581      53746570 
 1581      20447269 
 1581      76650D0A 
 1582              		.bss
 1583              		.set	.LANCHOR1,. + 0
 1584              		.type	direction, %object
 1585              		.size	direction, 1
 1586              	direction:
 1587 0000 00       		.space	1
 1588              		.type	position, %object
 1589              		.size	position, 1
 1590              	position:
 1591 0001 00       		.space	1
 1592              		.type	stepMode, %object
 1593              		.size	stepMode, 1
 1594              	stepMode:
 1595 0002 00       		.space	1
 1596              		.text
 1597              	.Letext0:
 1598              		.file 2 "c:\\program files (x86)\\cypress\\psoc creator\\4.1\\psoc creator\\import\\gnu\\arm\\5.4.
 1599              		.file 3 "c:\\program files (x86)\\cypress\\psoc creator\\4.1\\psoc creator\\import\\gnu\\arm\\5.4.
 1600              		.file 4 "Generated_Source\\PSoC5/cytypes.h"
 1601              		.file 5 "Generated_Source\\PSoC5/core_cm3.h"
 1602              		.file 6 "Generated_Source\\PSoC5/UART.h"
 1603              		.file 7 "Generated_Source\\PSoC5/Pin_1.h"
 1604              		.file 8 "Generated_Source\\PSoC5/Pin_2.h"
 1605              		.file 9 "Generated_Source\\PSoC5/Pin_3.h"
ARM GAS  C:\Users\chris\AppData\Local\Temp\cc8k6IVE.s 			page 42


 1606              		.file 10 "Generated_Source\\PSoC5/Pin_4.h"
 1607              		.file 11 "Generated_Source\\PSoC5/isr_uart.h"
 1608              		.file 12 "Generated_Source\\PSoC5/CyLib.h"