ARM GAS  C:\Users\LARSHO~1\AppData\Local\Temp\cc28nubw.s 			page 1


   1              		.syntax unified
   2              		.cpu cortex-m3
   3              		.fpu softvfp
   4              		.eabi_attribute 20, 1
   5              		.eabi_attribute 21, 1
   6              		.eabi_attribute 23, 3
   7              		.eabi_attribute 24, 1
   8              		.eabi_attribute 25, 1
   9              		.eabi_attribute 26, 1
  10              		.eabi_attribute 30, 1
  11              		.eabi_attribute 34, 1
  12              		.eabi_attribute 18, 4
  13              		.thumb
  14              		.syntax unified
  15              		.file	"main.c"
  16              		.text
  17              	.Ltext0:
  18              		.cfi_sections	.debug_frame
  19              		.section	.text.ISR_SPI,"ax",%progbits
  20              		.align	2
  21              		.global	ISR_SPI
  22              		.thumb
  23              		.thumb_func
  24              		.type	ISR_SPI, %function
  25              	ISR_SPI:
  26              	.LFB64:
  27              		.file 1 "main.c"
   1:main.c        **** /* ========================================
   2:main.c        ****  *
   3:main.c        ****  * Copyright YOUR COMPANY, THE YEAR
   4:main.c        ****  * All Rights Reserved
   5:main.c        ****  * UNPUBLISHED, LICENSED SOFTWARE.
   6:main.c        ****  *
   7:main.c        ****  * CONFIDENTIAL AND PROPRIETARY INFORMATION
   8:main.c        ****  * WHICH IS THE PROPERTY OF your company.
   9:main.c        **** 
  10:main.c        **** 
  11:main.c        ****  * OPS PUMPE 40% pwm
  12:main.c        ****  * ========================================
  13:main.c        **** */
  14:main.c        **** #include "project.h"
  15:main.c        **** #include <CyLib.h>
  16:main.c        **** #include <stdio.h>
  17:main.c        **** #include <stdlib.h>
  18:main.c        **** //#include "Motor.h"
  19:main.c        **** 
  20:main.c        **** #define LEFT 1u
  21:main.c        **** #define RIGHT 2u
  22:main.c        **** 
  23:main.c        **** volatile unsigned long turnSpeed = 3000;
  24:main.c        **** volatile unsigned long backTimer = 3000;
  25:main.c        **** volatile uint8_t sensor = 0;
  26:main.c        **** volatile uint8_t received = 0; //Varaible to store received data
  27:main.c        **** volatile uint8_t intFlag = 0; //Variable to indicate if there have been an interrupt
  28:main.c        **** volatile uint8_t speed = 50;
  29:main.c        **** volatile uint8_t forward = 1;
  30:main.c        **** volatile int16_t offsetADC = 0;
ARM GAS  C:\Users\LARSHO~1\AppData\Local\Temp\cc28nubw.s 			page 2


  31:main.c        **** 
  32:main.c        **** static uint8 sensorPushed = 0;
  33:main.c        **** 
  34:main.c        **** void decreaseSpeed(void);
  35:main.c        **** void increaseSpeed(void);
  36:main.c        **** void driveForwards(void);
  37:main.c        **** void driveBackwards(void);
  38:main.c        **** void stop(void);
  39:main.c        **** void turnRight(void);
  40:main.c        **** void turnLeft(void);
  41:main.c        **** 
  42:main.c        **** CY_ISR_PROTO(ISR_SPI); //Interrupt prototype
  43:main.c        **** CY_ISR(ISR_SPI) //Interrupt service routine
  44:main.c        **** {
  28              		.loc 1 44 0
  29              		.cfi_startproc
  30              		@ args = 0, pretend = 0, frame = 0
  31              		@ frame_needed = 0, uses_anonymous_args = 0
  32 0000 08B5     		push	{r3, lr}
  33              		.cfi_def_cfa_offset 8
  34              		.cfi_offset 3, -8
  35              		.cfi_offset 14, -4
  45:main.c        ****     received = SPI_Slave_ReadRxData(); //Storing the received data
  36              		.loc 1 45 0
  37 0002 FFF7FEFF 		bl	SPI_Slave_ReadRxData
  38              	.LVL0:
  39 0006 044B     		ldr	r3, .L3
  40 0008 1870     		strb	r0, [r3]
  46:main.c        ****     intFlag = 1; //Indicating that an interrupt has occurred
  41              		.loc 1 46 0
  42 000a 0122     		movs	r2, #1
  43 000c 5A70     		strb	r2, [r3, #1]
  47:main.c        ****     SPI_Slave_ClearRxBuffer(); //Clearing the RX buffer
  44              		.loc 1 47 0
  45 000e FFF7FEFF 		bl	SPI_Slave_ClearRxBuffer
  46              	.LVL1:
  48:main.c        ****     SPI_Slave_ClearFIFO(); //Clearing the FIFO register
  47              		.loc 1 48 0
  48 0012 FFF7FEFF 		bl	SPI_Slave_ClearFIFO
  49              	.LVL2:
  50 0016 08BD     		pop	{r3, pc}
  51              	.L4:
  52              		.align	2
  53              	.L3:
  54 0018 00000000 		.word	.LANCHOR0
  55              		.cfi_endproc
  56              	.LFE64:
  57              		.size	ISR_SPI, .-ISR_SPI
  58              		.section	.text.sensor_ISR,"ax",%progbits
  59              		.align	2
  60              		.global	sensor_ISR
  61              		.thumb
  62              		.thumb_func
  63              		.type	sensor_ISR, %function
  64              	sensor_ISR:
  65              	.LFB65:
  49:main.c        **** }
ARM GAS  C:\Users\LARSHO~1\AppData\Local\Temp\cc28nubw.s 			page 3


  50:main.c        **** 
  51:main.c        **** CY_ISR(sensor_ISR)
  52:main.c        **** {
  66              		.loc 1 52 0
  67              		.cfi_startproc
  68              		@ args = 0, pretend = 0, frame = 0
  69              		@ frame_needed = 0, uses_anonymous_args = 0
  70 0000 08B5     		push	{r3, lr}
  71              		.cfi_def_cfa_offset 8
  72              		.cfi_offset 3, -8
  73              		.cfi_offset 14, -4
  53:main.c        ****     if(!sensor)
  74              		.loc 1 53 0
  75 0002 0D4B     		ldr	r3, .L9
  76 0004 9B78     		ldrb	r3, [r3, #2]	@ zero_extendqisi2
  77 0006 13F0FF0F 		tst	r3, #255
  78 000a 12D1     		bne	.L6
  54:main.c        ****     {
  55:main.c        ****     sensor = Pin_1_Read();
  79              		.loc 1 55 0
  80 000c FFF7FEFF 		bl	Pin_1_Read
  81              	.LVL3:
  82 0010 094B     		ldr	r3, .L9
  83 0012 9870     		strb	r0, [r3, #2]
  56:main.c        ****     UART_1_PutString("Flag bliver sat. Pin1\r\n");
  84              		.loc 1 56 0
  85 0014 0948     		ldr	r0, .L9+4
  86 0016 FFF7FEFF 		bl	UART_1_PutString
  87              	.LVL4:
  57:main.c        ****      if(Pin_1_INTSTAT & (0x01 << Pin_1_SHIFT))
  88              		.loc 1 57 0
  89 001a 094B     		ldr	r3, .L9+8
  90 001c 1B78     		ldrb	r3, [r3]	@ zero_extendqisi2
  91 001e 13F0010F 		tst	r3, #1
  92 0022 03D0     		beq	.L7
  58:main.c        ****     {
  59:main.c        ****         sensorPushed = LEFT;
  93              		.loc 1 59 0
  94 0024 0122     		movs	r2, #1
  95 0026 044B     		ldr	r3, .L9
  96 0028 DA70     		strb	r2, [r3, #3]
  97 002a 02E0     		b	.L6
  98              	.L7:
  60:main.c        ****     }
  61:main.c        ****     else
  62:main.c        ****     {
  63:main.c        ****         sensorPushed = RIGHT;
  99              		.loc 1 63 0
 100 002c 0222     		movs	r2, #2
 101 002e 024B     		ldr	r3, .L9
 102 0030 DA70     		strb	r2, [r3, #3]
 103              	.L6:
  64:main.c        ****     }
  65:main.c        ****     }
  66:main.c        ****     
  67:main.c        ****      Pin_1_ClearInterrupt(); // Clears interrupt, makes ready for new one
 104              		.loc 1 67 0
ARM GAS  C:\Users\LARSHO~1\AppData\Local\Temp\cc28nubw.s 			page 4


 105 0032 FFF7FEFF 		bl	Pin_1_ClearInterrupt
 106              	.LVL5:
 107 0036 08BD     		pop	{r3, pc}
 108              	.L10:
 109              		.align	2
 110              	.L9:
 111 0038 00000000 		.word	.LANCHOR0
 112 003c 00000000 		.word	.LC0
 113 0040 80450040 		.word	1073759616
 114              		.cfi_endproc
 115              	.LFE65:
 116              		.size	sensor_ISR, .-sensor_ISR
 117              		.section	.text.decreaseSpeed,"ax",%progbits
 118              		.align	2
 119              		.global	decreaseSpeed
 120              		.thumb
 121              		.thumb_func
 122              		.type	decreaseSpeed, %function
 123              	decreaseSpeed:
 124              	.LFB70:
  68:main.c        ****     
  69:main.c        **** }
  70:main.c        **** 
  71:main.c        **** CY_ISR_PROTO(ISR_UART_rx_handler);
  72:main.c        **** void handleByteReceived(uint8_t byteReceived);
  73:main.c        **** 
  74:main.c        **** 
  75:main.c        **** 
  76:main.c        **** CY_ISR(ISR_UART_rx_handler)
  77:main.c        **** {
  78:main.c        **** 	//Read char from RX buffer and react
  79:main.c        ****     uint8_t bytesToRead = UART_1_GetRxBufferSize();
  80:main.c        ****     while (bytesToRead > 0)
  81:main.c        ****     {
  82:main.c        ****         uint8_t byteReceived = UART_1_ReadRxData();
  83:main.c        ****         UART_1_WriteTxData(byteReceived); // echo back
  84:main.c        ****         
  85:main.c        ****         handleByteReceived(byteReceived);
  86:main.c        ****         
  87:main.c        ****         bytesToRead--;
  88:main.c        ****     }
  89:main.c        **** }
  90:main.c        **** 
  91:main.c        **** void handleByteReceived(uint8_t byteReceived)
  92:main.c        **** {
  93:main.c        ****     switch(byteReceived)
  94:main.c        ****     {
  95:main.c        ****         case 'q' :
  96:main.c        ****         {
  97:main.c        ****             decreaseSpeed();
  98:main.c        ****         }
  99:main.c        ****         break;
 100:main.c        ****         case 'w' :
 101:main.c        ****         {
 102:main.c        ****             increaseSpeed();
 103:main.c        ****         }
 104:main.c        ****         break;
ARM GAS  C:\Users\LARSHO~1\AppData\Local\Temp\cc28nubw.s 			page 5


 105:main.c        ****         case '1' :
 106:main.c        ****         {
 107:main.c        ****             driveForwards();
 108:main.c        ****         }
 109:main.c        ****         break;
 110:main.c        ****         case '2' :
 111:main.c        ****         {
 112:main.c        ****             driveBackwards();
 113:main.c        ****         }
 114:main.c        ****         break;
 115:main.c        ****         case '0' :
 116:main.c        ****         {
 117:main.c        ****             stop();
 118:main.c        ****             
 119:main.c        ****         }
 120:main.c        ****         break;
 121:main.c        ****           break;
 122:main.c        ****         case 'h' :
 123:main.c        ****         {
 124:main.c        ****             turnLeft();
 125:main.c        ****             
 126:main.c        ****         }
 127:main.c        ****         break;
 128:main.c        ****           break;
 129:main.c        ****         case 'v' :
 130:main.c        ****         {
 131:main.c        ****             turnRight();
 132:main.c        ****             
 133:main.c        ****         }
 134:main.c        ****         break;
 135:main.c        ****         case 't' :
 136:main.c        ****         {
 137:main.c        ****             if(ADC_SAR_1_IsEndConversion(ADC_SAR_1_WAIT_FOR_RESULT))
 138:main.c        ****             {
 139:main.c        ****             int16_t offset = 0;
 140:main.c        ****             offset = ADC_SAR_1_GetResult16();
 141:main.c        ****             ADC_SAR_1_SetOffset(offset);
 142:main.c        ****             }
 143:main.c        ****         }
 144:main.c        ****         default :
 145:main.c        ****         {
 146:main.c        ****             // nothing
 147:main.c        ****         }
 148:main.c        ****         break;
 149:main.c        ****     }
 150:main.c        **** }
 151:main.c        **** 
 152:main.c        **** void turnRight(void)
 153:main.c        **** {
 154:main.c        ****      UART_1_PutString("Turning right\r\n");
 155:main.c        ****     driveBackwards();
 156:main.c        ****     CyDelay(backTimer);
 157:main.c        ****     driveForwards();
 158:main.c        ****     PWM_M3_WriteCompare(speed);
 159:main.c        ****     PWM_M1_WriteCompare(0);
 160:main.c        ****     CyDelay(turnSpeed);
 161:main.c        ****     PWM_M1_WriteCompare(speed);
ARM GAS  C:\Users\LARSHO~1\AppData\Local\Temp\cc28nubw.s 			page 6


 162:main.c        **** }
 163:main.c        **** void turnLeft(void)
 164:main.c        **** {
 165:main.c        ****     UART_1_PutString("Turning left\r\n");
 166:main.c        ****     driveBackwards();
 167:main.c        ****     CyDelay(backTimer);
 168:main.c        ****     driveForwards();
 169:main.c        ****     PWM_M1_WriteCompare(speed);
 170:main.c        ****     PWM_M3_WriteCompare(0);
 171:main.c        ****     CyDelay(turnSpeed);
 172:main.c        ****     PWM_M3_WriteCompare(speed);
 173:main.c        **** }
 174:main.c        **** 
 175:main.c        **** void decreaseSpeed()
 176:main.c        **** {
 125              		.loc 1 176 0
 126              		.cfi_startproc
 127              		@ args = 0, pretend = 0, frame = 0
 128              		@ frame_needed = 0, uses_anonymous_args = 0
 129 0000 10B5     		push	{r4, lr}
 130              		.cfi_def_cfa_offset 8
 131              		.cfi_offset 4, -8
 132              		.cfi_offset 14, -4
 177:main.c        ****     UART_1_PutString("Decreasing speed\r\n");
 133              		.loc 1 177 0
 134 0002 1148     		ldr	r0, .L17
 135 0004 FFF7FEFF 		bl	UART_1_PutString
 136              	.LVL6:
 178:main.c        **** 
 179:main.c        **** 	if (speed <= 10)
 137              		.loc 1 179 0
 138 0008 104B     		ldr	r3, .L17+4
 139 000a 1B78     		ldrb	r3, [r3]	@ zero_extendqisi2
 140 000c DBB2     		uxtb	r3, r3
 141 000e 0A2B     		cmp	r3, #10
 142 0010 03D8     		bhi	.L12
 180:main.c        **** 	{
 181:main.c        **** 		speed = 0;
 143              		.loc 1 181 0
 144 0012 0022     		movs	r2, #0
 145 0014 0D4B     		ldr	r3, .L17+4
 146 0016 1A70     		strb	r2, [r3]
 147 0018 04E0     		b	.L13
 148              	.L12:
 182:main.c        **** 	}
 183:main.c        **** 	else
 184:main.c        **** 	{
 185:main.c        **** 		speed -= 10;
 149              		.loc 1 185 0
 150 001a 0C4A     		ldr	r2, .L17+4
 151 001c 1378     		ldrb	r3, [r2]	@ zero_extendqisi2
 152 001e 0A3B     		subs	r3, r3, #10
 153 0020 DBB2     		uxtb	r3, r3
 154 0022 1370     		strb	r3, [r2]
 155              	.L13:
 186:main.c        **** 	}
 187:main.c        **** 
ARM GAS  C:\Users\LARSHO~1\AppData\Local\Temp\cc28nubw.s 			page 7


 188:main.c        ****     if (forward == 1)
 156              		.loc 1 188 0
 157 0024 094B     		ldr	r3, .L17+4
 158 0026 5B78     		ldrb	r3, [r3, #1]	@ zero_extendqisi2
 159 0028 DBB2     		uxtb	r3, r3
 160 002a 012B     		cmp	r3, #1
 161 002c 04D1     		bne	.L14
 189:main.c        ****     {
 190:main.c        ****         //PWM_M1_WriteCompare(speed);
 191:main.c        ****         //PWM_M3_WriteCompare(speed);
 192:main.c        ****         PWM_P_WriteCompare(speed);
 162              		.loc 1 192 0
 163 002e 074B     		ldr	r3, .L17+4
 164 0030 1878     		ldrb	r0, [r3]	@ zero_extendqisi2
 165 0032 FFF7FEFF 		bl	PWM_P_WriteCompare
 166              	.LVL7:
 167 0036 10BD     		pop	{r4, pc}
 168              	.L14:
 193:main.c        ****     }
 194:main.c        ****     else
 195:main.c        ****     {
 196:main.c        ****         PWM_M2_WriteCompare(speed);
 169              		.loc 1 196 0
 170 0038 044C     		ldr	r4, .L17+4
 171 003a 2078     		ldrb	r0, [r4]	@ zero_extendqisi2
 172 003c FFF7FEFF 		bl	PWM_M2_WriteCompare
 173              	.LVL8:
 197:main.c        ****         PWM_M4_WriteCompare(speed);//Increase compare variable to increase speed
 174              		.loc 1 197 0
 175 0040 2078     		ldrb	r0, [r4]	@ zero_extendqisi2
 176 0042 FFF7FEFF 		bl	PWM_M4_WriteCompare
 177              	.LVL9:
 178 0046 10BD     		pop	{r4, pc}
 179              	.L18:
 180              		.align	2
 181              	.L17:
 182 0048 18000000 		.word	.LC1
 183 004c 00000000 		.word	.LANCHOR1
 184              		.cfi_endproc
 185              	.LFE70:
 186              		.size	decreaseSpeed, .-decreaseSpeed
 187              		.section	.text.increaseSpeed,"ax",%progbits
 188              		.align	2
 189              		.global	increaseSpeed
 190              		.thumb
 191              		.thumb_func
 192              		.type	increaseSpeed, %function
 193              	increaseSpeed:
 194              	.LFB71:
 198:main.c        ****     }
 199:main.c        **** }
 200:main.c        **** 
 201:main.c        **** void increaseSpeed()
 202:main.c        **** {
 195              		.loc 1 202 0
 196              		.cfi_startproc
 197              		@ args = 0, pretend = 0, frame = 0
ARM GAS  C:\Users\LARSHO~1\AppData\Local\Temp\cc28nubw.s 			page 8


 198              		@ frame_needed = 0, uses_anonymous_args = 0
 199 0000 08B5     		push	{r3, lr}
 200              		.cfi_def_cfa_offset 8
 201              		.cfi_offset 3, -8
 202              		.cfi_offset 14, -4
 203:main.c        ****     UART_1_PutString("Increasing speed\r\n");
 203              		.loc 1 203 0
 204 0002 0C48     		ldr	r0, .L23
 205 0004 FFF7FEFF 		bl	UART_1_PutString
 206              	.LVL10:
 204:main.c        **** 	speed = speed + 10;
 207              		.loc 1 204 0
 208 0008 0B4A     		ldr	r2, .L23+4
 209 000a 1378     		ldrb	r3, [r2]	@ zero_extendqisi2
 210 000c 0A33     		adds	r3, r3, #10
 211 000e DBB2     		uxtb	r3, r3
 212 0010 1370     		strb	r3, [r2]
 205:main.c        **** 	if (speed > 100)
 213              		.loc 1 205 0
 214 0012 1378     		ldrb	r3, [r2]	@ zero_extendqisi2
 215 0014 DBB2     		uxtb	r3, r3
 216 0016 642B     		cmp	r3, #100
 217 0018 02D9     		bls	.L20
 206:main.c        **** 	{
 207:main.c        **** 		speed = 100;
 218              		.loc 1 207 0
 219 001a 6422     		movs	r2, #100
 220 001c 064B     		ldr	r3, .L23+4
 221 001e 1A70     		strb	r2, [r3]
 222              	.L20:
 208:main.c        **** 	}
 209:main.c        ****     if (forward == 1)
 223              		.loc 1 209 0
 224 0020 054B     		ldr	r3, .L23+4
 225 0022 5B78     		ldrb	r3, [r3, #1]	@ zero_extendqisi2
 226 0024 DBB2     		uxtb	r3, r3
 227 0026 012B     		cmp	r3, #1
 228 0028 03D1     		bne	.L19
 210:main.c        ****     {
 211:main.c        **** //        PWM_M3_WriteCompare(speed);
 212:main.c        **** //        PWM_M1_WriteCompare(speed); 
 213:main.c        ****         PWM_P_WriteCompare(speed);
 229              		.loc 1 213 0
 230 002a 034B     		ldr	r3, .L23+4
 231 002c 1878     		ldrb	r0, [r3]	@ zero_extendqisi2
 232 002e FFF7FEFF 		bl	PWM_P_WriteCompare
 233              	.LVL11:
 234              	.L19:
 235 0032 08BD     		pop	{r3, pc}
 236              	.L24:
 237              		.align	2
 238              	.L23:
 239 0034 2C000000 		.word	.LC2
 240 0038 00000000 		.word	.LANCHOR1
 241              		.cfi_endproc
 242              	.LFE71:
 243              		.size	increaseSpeed, .-increaseSpeed
ARM GAS  C:\Users\LARSHO~1\AppData\Local\Temp\cc28nubw.s 			page 9


 244              		.section	.text.stop,"ax",%progbits
 245              		.align	2
 246              		.global	stop
 247              		.thumb
 248              		.thumb_func
 249              		.type	stop, %function
 250              	stop:
 251              	.LFB74:
 214:main.c        ****     }
 215:main.c        ****     else
 216:main.c        ****     {
 217:main.c        ****         //PWM_M2_WriteCompare(speed);
 218:main.c        ****         //PWM_M4_WriteCompare(speed);//Increase compare variable to increase speed
 219:main.c        ****     }
 220:main.c        **** }
 221:main.c        **** 
 222:main.c        **** void driveForwards()
 223:main.c        **** {
 224:main.c        ****     UART_1_PutString("Set direction: forwards\r\n");
 225:main.c        ****     forward = 1;
 226:main.c        ****     stop();
 227:main.c        ****     speed = 50;
 228:main.c        ****     PWM_M1_WriteCompare(speed);
 229:main.c        ****     PWM_M3_WriteCompare(speed);
 230:main.c        **** }
 231:main.c        **** 
 232:main.c        **** void driveBackwards()
 233:main.c        **** {
 234:main.c        ****     UART_1_PutString("Set direction: backwards\r\n");
 235:main.c        ****     forward = 0;
 236:main.c        ****     stop();
 237:main.c        ****     speed = 50;
 238:main.c        ****     PWM_M2_WriteCompare(speed);
 239:main.c        ****     PWM_M4_WriteCompare(speed);
 240:main.c        **** }
 241:main.c        **** 
 242:main.c        **** void stop()
 243:main.c        **** {
 252              		.loc 1 243 0
 253              		.cfi_startproc
 254              		@ args = 0, pretend = 0, frame = 0
 255              		@ frame_needed = 0, uses_anonymous_args = 0
 256 0000 10B5     		push	{r4, lr}
 257              		.cfi_def_cfa_offset 8
 258              		.cfi_offset 4, -8
 259              		.cfi_offset 14, -4
 244:main.c        ****     UART_1_PutString("Stop\r\n");
 260              		.loc 1 244 0
 261 0002 0948     		ldr	r0, .L27
 262 0004 FFF7FEFF 		bl	UART_1_PutString
 263              	.LVL12:
 245:main.c        **** 	speed = 0;
 264              		.loc 1 245 0
 265 0008 084C     		ldr	r4, .L27+4
 266 000a 0023     		movs	r3, #0
 267 000c 2370     		strb	r3, [r4]
 246:main.c        **** 	PWM_M1_WriteCompare(speed);
ARM GAS  C:\Users\LARSHO~1\AppData\Local\Temp\cc28nubw.s 			page 10


 268              		.loc 1 246 0
 269 000e 2078     		ldrb	r0, [r4]	@ zero_extendqisi2
 270 0010 FFF7FEFF 		bl	PWM_M1_WriteCompare
 271              	.LVL13:
 247:main.c        ****     PWM_M2_WriteCompare(speed);
 272              		.loc 1 247 0
 273 0014 2078     		ldrb	r0, [r4]	@ zero_extendqisi2
 274 0016 FFF7FEFF 		bl	PWM_M2_WriteCompare
 275              	.LVL14:
 248:main.c        ****     PWM_M3_WriteCompare(speed);
 276              		.loc 1 248 0
 277 001a 2078     		ldrb	r0, [r4]	@ zero_extendqisi2
 278 001c FFF7FEFF 		bl	PWM_M3_WriteCompare
 279              	.LVL15:
 249:main.c        ****     PWM_M4_WriteCompare(speed);
 280              		.loc 1 249 0
 281 0020 2078     		ldrb	r0, [r4]	@ zero_extendqisi2
 282 0022 FFF7FEFF 		bl	PWM_M4_WriteCompare
 283              	.LVL16:
 284 0026 10BD     		pop	{r4, pc}
 285              	.L28:
 286              		.align	2
 287              	.L27:
 288 0028 40000000 		.word	.LC3
 289 002c 00000000 		.word	.LANCHOR1
 290              		.cfi_endproc
 291              	.LFE74:
 292              		.size	stop, .-stop
 293              		.section	.text.driveForwards,"ax",%progbits
 294              		.align	2
 295              		.global	driveForwards
 296              		.thumb
 297              		.thumb_func
 298              		.type	driveForwards, %function
 299              	driveForwards:
 300              	.LFB72:
 223:main.c        ****     UART_1_PutString("Set direction: forwards\r\n");
 301              		.loc 1 223 0
 302              		.cfi_startproc
 303              		@ args = 0, pretend = 0, frame = 0
 304              		@ frame_needed = 0, uses_anonymous_args = 0
 305 0000 10B5     		push	{r4, lr}
 306              		.cfi_def_cfa_offset 8
 307              		.cfi_offset 4, -8
 308              		.cfi_offset 14, -4
 224:main.c        ****     forward = 1;
 309              		.loc 1 224 0
 310 0002 0848     		ldr	r0, .L31
 311 0004 FFF7FEFF 		bl	UART_1_PutString
 312              	.LVL17:
 225:main.c        ****     stop();
 313              		.loc 1 225 0
 314 0008 074C     		ldr	r4, .L31+4
 315 000a 0123     		movs	r3, #1
 316 000c 6370     		strb	r3, [r4, #1]
 226:main.c        ****     speed = 50;
 317              		.loc 1 226 0
ARM GAS  C:\Users\LARSHO~1\AppData\Local\Temp\cc28nubw.s 			page 11


 318 000e FFF7FEFF 		bl	stop
 319              	.LVL18:
 227:main.c        ****     PWM_M1_WriteCompare(speed);
 320              		.loc 1 227 0
 321 0012 3223     		movs	r3, #50
 322 0014 2370     		strb	r3, [r4]
 228:main.c        ****     PWM_M3_WriteCompare(speed);
 323              		.loc 1 228 0
 324 0016 2078     		ldrb	r0, [r4]	@ zero_extendqisi2
 325 0018 FFF7FEFF 		bl	PWM_M1_WriteCompare
 326              	.LVL19:
 229:main.c        **** }
 327              		.loc 1 229 0
 328 001c 2078     		ldrb	r0, [r4]	@ zero_extendqisi2
 329 001e FFF7FEFF 		bl	PWM_M3_WriteCompare
 330              	.LVL20:
 331 0022 10BD     		pop	{r4, pc}
 332              	.L32:
 333              		.align	2
 334              	.L31:
 335 0024 48000000 		.word	.LC4
 336 0028 00000000 		.word	.LANCHOR1
 337              		.cfi_endproc
 338              	.LFE72:
 339              		.size	driveForwards, .-driveForwards
 340              		.section	.text.driveBackwards,"ax",%progbits
 341              		.align	2
 342              		.global	driveBackwards
 343              		.thumb
 344              		.thumb_func
 345              		.type	driveBackwards, %function
 346              	driveBackwards:
 347              	.LFB73:
 233:main.c        ****     UART_1_PutString("Set direction: backwards\r\n");
 348              		.loc 1 233 0
 349              		.cfi_startproc
 350              		@ args = 0, pretend = 0, frame = 0
 351              		@ frame_needed = 0, uses_anonymous_args = 0
 352 0000 10B5     		push	{r4, lr}
 353              		.cfi_def_cfa_offset 8
 354              		.cfi_offset 4, -8
 355              		.cfi_offset 14, -4
 234:main.c        ****     forward = 0;
 356              		.loc 1 234 0
 357 0002 0848     		ldr	r0, .L35
 358 0004 FFF7FEFF 		bl	UART_1_PutString
 359              	.LVL21:
 235:main.c        ****     stop();
 360              		.loc 1 235 0
 361 0008 074C     		ldr	r4, .L35+4
 362 000a 0023     		movs	r3, #0
 363 000c 6370     		strb	r3, [r4, #1]
 236:main.c        ****     speed = 50;
 364              		.loc 1 236 0
 365 000e FFF7FEFF 		bl	stop
 366              	.LVL22:
 237:main.c        ****     PWM_M2_WriteCompare(speed);
ARM GAS  C:\Users\LARSHO~1\AppData\Local\Temp\cc28nubw.s 			page 12


 367              		.loc 1 237 0
 368 0012 3223     		movs	r3, #50
 369 0014 2370     		strb	r3, [r4]
 238:main.c        ****     PWM_M4_WriteCompare(speed);
 370              		.loc 1 238 0
 371 0016 2078     		ldrb	r0, [r4]	@ zero_extendqisi2
 372 0018 FFF7FEFF 		bl	PWM_M2_WriteCompare
 373              	.LVL23:
 239:main.c        **** }
 374              		.loc 1 239 0
 375 001c 2078     		ldrb	r0, [r4]	@ zero_extendqisi2
 376 001e FFF7FEFF 		bl	PWM_M4_WriteCompare
 377              	.LVL24:
 378 0022 10BD     		pop	{r4, pc}
 379              	.L36:
 380              		.align	2
 381              	.L35:
 382 0024 64000000 		.word	.LC5
 383 0028 00000000 		.word	.LANCHOR1
 384              		.cfi_endproc
 385              	.LFE73:
 386              		.size	driveBackwards, .-driveBackwards
 387              		.section	.text.turnRight,"ax",%progbits
 388              		.align	2
 389              		.global	turnRight
 390              		.thumb
 391              		.thumb_func
 392              		.type	turnRight, %function
 393              	turnRight:
 394              	.LFB68:
 153:main.c        ****      UART_1_PutString("Turning right\r\n");
 395              		.loc 1 153 0
 396              		.cfi_startproc
 397              		@ args = 0, pretend = 0, frame = 0
 398              		@ frame_needed = 0, uses_anonymous_args = 0
 399 0000 10B5     		push	{r4, lr}
 400              		.cfi_def_cfa_offset 8
 401              		.cfi_offset 4, -8
 402              		.cfi_offset 14, -4
 154:main.c        ****     driveBackwards();
 403              		.loc 1 154 0
 404 0002 0C48     		ldr	r0, .L39
 405 0004 FFF7FEFF 		bl	UART_1_PutString
 406              	.LVL25:
 155:main.c        ****     CyDelay(backTimer);
 407              		.loc 1 155 0
 408 0008 FFF7FEFF 		bl	driveBackwards
 409              	.LVL26:
 156:main.c        ****     driveForwards();
 410              		.loc 1 156 0
 411 000c 0A4C     		ldr	r4, .L39+4
 412 000e 6068     		ldr	r0, [r4, #4]
 413 0010 FFF7FEFF 		bl	CyDelay
 414              	.LVL27:
 157:main.c        ****     PWM_M3_WriteCompare(speed);
 415              		.loc 1 157 0
 416 0014 FFF7FEFF 		bl	driveForwards
ARM GAS  C:\Users\LARSHO~1\AppData\Local\Temp\cc28nubw.s 			page 13


 417              	.LVL28:
 158:main.c        ****     PWM_M1_WriteCompare(0);
 418              		.loc 1 158 0
 419 0018 2078     		ldrb	r0, [r4]	@ zero_extendqisi2
 420 001a FFF7FEFF 		bl	PWM_M3_WriteCompare
 421              	.LVL29:
 159:main.c        ****     CyDelay(turnSpeed);
 422              		.loc 1 159 0
 423 001e 0020     		movs	r0, #0
 424 0020 FFF7FEFF 		bl	PWM_M1_WriteCompare
 425              	.LVL30:
 160:main.c        ****     PWM_M1_WriteCompare(speed);
 426              		.loc 1 160 0
 427 0024 A068     		ldr	r0, [r4, #8]
 428 0026 FFF7FEFF 		bl	CyDelay
 429              	.LVL31:
 161:main.c        **** }
 430              		.loc 1 161 0
 431 002a 2078     		ldrb	r0, [r4]	@ zero_extendqisi2
 432 002c FFF7FEFF 		bl	PWM_M1_WriteCompare
 433              	.LVL32:
 434 0030 10BD     		pop	{r4, pc}
 435              	.L40:
 436 0032 00BF     		.align	2
 437              	.L39:
 438 0034 80000000 		.word	.LC6
 439 0038 00000000 		.word	.LANCHOR1
 440              		.cfi_endproc
 441              	.LFE68:
 442              		.size	turnRight, .-turnRight
 443              		.section	.text.turnLeft,"ax",%progbits
 444              		.align	2
 445              		.global	turnLeft
 446              		.thumb
 447              		.thumb_func
 448              		.type	turnLeft, %function
 449              	turnLeft:
 450              	.LFB69:
 164:main.c        ****     UART_1_PutString("Turning left\r\n");
 451              		.loc 1 164 0
 452              		.cfi_startproc
 453              		@ args = 0, pretend = 0, frame = 0
 454              		@ frame_needed = 0, uses_anonymous_args = 0
 455 0000 10B5     		push	{r4, lr}
 456              		.cfi_def_cfa_offset 8
 457              		.cfi_offset 4, -8
 458              		.cfi_offset 14, -4
 165:main.c        ****     driveBackwards();
 459              		.loc 1 165 0
 460 0002 0C48     		ldr	r0, .L43
 461 0004 FFF7FEFF 		bl	UART_1_PutString
 462              	.LVL33:
 166:main.c        ****     CyDelay(backTimer);
 463              		.loc 1 166 0
 464 0008 FFF7FEFF 		bl	driveBackwards
 465              	.LVL34:
 167:main.c        ****     driveForwards();
ARM GAS  C:\Users\LARSHO~1\AppData\Local\Temp\cc28nubw.s 			page 14


 466              		.loc 1 167 0
 467 000c 0A4C     		ldr	r4, .L43+4
 468 000e 6068     		ldr	r0, [r4, #4]
 469 0010 FFF7FEFF 		bl	CyDelay
 470              	.LVL35:
 168:main.c        ****     PWM_M1_WriteCompare(speed);
 471              		.loc 1 168 0
 472 0014 FFF7FEFF 		bl	driveForwards
 473              	.LVL36:
 169:main.c        ****     PWM_M3_WriteCompare(0);
 474              		.loc 1 169 0
 475 0018 2078     		ldrb	r0, [r4]	@ zero_extendqisi2
 476 001a FFF7FEFF 		bl	PWM_M1_WriteCompare
 477              	.LVL37:
 170:main.c        ****     CyDelay(turnSpeed);
 478              		.loc 1 170 0
 479 001e 0020     		movs	r0, #0
 480 0020 FFF7FEFF 		bl	PWM_M3_WriteCompare
 481              	.LVL38:
 171:main.c        ****     PWM_M3_WriteCompare(speed);
 482              		.loc 1 171 0
 483 0024 A068     		ldr	r0, [r4, #8]
 484 0026 FFF7FEFF 		bl	CyDelay
 485              	.LVL39:
 172:main.c        **** }
 486              		.loc 1 172 0
 487 002a 2078     		ldrb	r0, [r4]	@ zero_extendqisi2
 488 002c FFF7FEFF 		bl	PWM_M3_WriteCompare
 489              	.LVL40:
 490 0030 10BD     		pop	{r4, pc}
 491              	.L44:
 492 0032 00BF     		.align	2
 493              	.L43:
 494 0034 90000000 		.word	.LC7
 495 0038 00000000 		.word	.LANCHOR1
 496              		.cfi_endproc
 497              	.LFE69:
 498              		.size	turnLeft, .-turnLeft
 499              		.section	.text.handleByteReceived,"ax",%progbits
 500              		.align	2
 501              		.global	handleByteReceived
 502              		.thumb
 503              		.thumb_func
 504              		.type	handleByteReceived, %function
 505              	handleByteReceived:
 506              	.LFB67:
  92:main.c        ****     switch(byteReceived)
 507              		.loc 1 92 0
 508              		.cfi_startproc
 509              		@ args = 0, pretend = 0, frame = 0
 510              		@ frame_needed = 0, uses_anonymous_args = 0
 511              	.LVL41:
 512 0000 08B5     		push	{r3, lr}
 513              		.cfi_def_cfa_offset 8
 514              		.cfi_offset 3, -8
 515              		.cfi_offset 14, -4
  93:main.c        ****     {
ARM GAS  C:\Users\LARSHO~1\AppData\Local\Temp\cc28nubw.s 			page 15


 516              		.loc 1 93 0
 517 0002 3038     		subs	r0, r0, #48
 518              	.LVL42:
 519 0004 4728     		cmp	r0, #71
 520 0006 42D8     		bhi	.L45
 521 0008 DFE800F0 		tbb	[pc, r0]
 522              	.L48:
 523 000c 30       		.byte	(.L47-.L48)/2
 524 000d 2A       		.byte	(.L49-.L48)/2
 525 000e 2D       		.byte	(.L50-.L48)/2
 526 000f 41       		.byte	(.L45-.L48)/2
 527 0010 41       		.byte	(.L45-.L48)/2
 528 0011 41       		.byte	(.L45-.L48)/2
 529 0012 41       		.byte	(.L45-.L48)/2
 530 0013 41       		.byte	(.L45-.L48)/2
 531 0014 41       		.byte	(.L45-.L48)/2
 532 0015 41       		.byte	(.L45-.L48)/2
 533 0016 41       		.byte	(.L45-.L48)/2
 534 0017 41       		.byte	(.L45-.L48)/2
 535 0018 41       		.byte	(.L45-.L48)/2
 536 0019 41       		.byte	(.L45-.L48)/2
 537 001a 41       		.byte	(.L45-.L48)/2
 538 001b 41       		.byte	(.L45-.L48)/2
 539 001c 41       		.byte	(.L45-.L48)/2
 540 001d 41       		.byte	(.L45-.L48)/2
 541 001e 41       		.byte	(.L45-.L48)/2
 542 001f 41       		.byte	(.L45-.L48)/2
 543 0020 41       		.byte	(.L45-.L48)/2
 544 0021 41       		.byte	(.L45-.L48)/2
 545 0022 41       		.byte	(.L45-.L48)/2
 546 0023 41       		.byte	(.L45-.L48)/2
 547 0024 41       		.byte	(.L45-.L48)/2
 548 0025 41       		.byte	(.L45-.L48)/2
 549 0026 41       		.byte	(.L45-.L48)/2
 550 0027 41       		.byte	(.L45-.L48)/2
 551 0028 41       		.byte	(.L45-.L48)/2
 552 0029 41       		.byte	(.L45-.L48)/2
 553 002a 41       		.byte	(.L45-.L48)/2
 554 002b 41       		.byte	(.L45-.L48)/2
 555 002c 41       		.byte	(.L45-.L48)/2
 556 002d 41       		.byte	(.L45-.L48)/2
 557 002e 41       		.byte	(.L45-.L48)/2
 558 002f 41       		.byte	(.L45-.L48)/2
 559 0030 41       		.byte	(.L45-.L48)/2
 560 0031 41       		.byte	(.L45-.L48)/2
 561 0032 41       		.byte	(.L45-.L48)/2
 562 0033 41       		.byte	(.L45-.L48)/2
 563 0034 41       		.byte	(.L45-.L48)/2
 564 0035 41       		.byte	(.L45-.L48)/2
 565 0036 41       		.byte	(.L45-.L48)/2
 566 0037 41       		.byte	(.L45-.L48)/2
 567 0038 41       		.byte	(.L45-.L48)/2
 568 0039 41       		.byte	(.L45-.L48)/2
 569 003a 41       		.byte	(.L45-.L48)/2
 570 003b 41       		.byte	(.L45-.L48)/2
 571 003c 41       		.byte	(.L45-.L48)/2
 572 003d 41       		.byte	(.L45-.L48)/2
ARM GAS  C:\Users\LARSHO~1\AppData\Local\Temp\cc28nubw.s 			page 16


 573 003e 41       		.byte	(.L45-.L48)/2
 574 003f 41       		.byte	(.L45-.L48)/2
 575 0040 41       		.byte	(.L45-.L48)/2
 576 0041 41       		.byte	(.L45-.L48)/2
 577 0042 41       		.byte	(.L45-.L48)/2
 578 0043 41       		.byte	(.L45-.L48)/2
 579 0044 33       		.byte	(.L51-.L48)/2
 580 0045 41       		.byte	(.L45-.L48)/2
 581 0046 41       		.byte	(.L45-.L48)/2
 582 0047 41       		.byte	(.L45-.L48)/2
 583 0048 41       		.byte	(.L45-.L48)/2
 584 0049 41       		.byte	(.L45-.L48)/2
 585 004a 41       		.byte	(.L45-.L48)/2
 586 004b 41       		.byte	(.L45-.L48)/2
 587 004c 41       		.byte	(.L45-.L48)/2
 588 004d 24       		.byte	(.L52-.L48)/2
 589 004e 41       		.byte	(.L45-.L48)/2
 590 004f 41       		.byte	(.L45-.L48)/2
 591 0050 39       		.byte	(.L53-.L48)/2
 592 0051 41       		.byte	(.L45-.L48)/2
 593 0052 36       		.byte	(.L54-.L48)/2
 594 0053 27       		.byte	(.L55-.L48)/2
 595              		.p2align 1
 596              	.L52:
  97:main.c        ****         }
 597              		.loc 1 97 0
 598 0054 FFF7FEFF 		bl	decreaseSpeed
 599              	.LVL43:
  99:main.c        ****         case 'w' :
 600              		.loc 1 99 0
 601 0058 08BD     		pop	{r3, pc}
 602              	.L55:
 102:main.c        ****         }
 603              		.loc 1 102 0
 604 005a FFF7FEFF 		bl	increaseSpeed
 605              	.LVL44:
 104:main.c        ****         case '1' :
 606              		.loc 1 104 0
 607 005e 08BD     		pop	{r3, pc}
 608              	.L49:
 107:main.c        ****         }
 609              		.loc 1 107 0
 610 0060 FFF7FEFF 		bl	driveForwards
 611              	.LVL45:
 109:main.c        ****         case '2' :
 612              		.loc 1 109 0
 613 0064 08BD     		pop	{r3, pc}
 614              	.L50:
 112:main.c        ****         }
 615              		.loc 1 112 0
 616 0066 FFF7FEFF 		bl	driveBackwards
 617              	.LVL46:
 114:main.c        ****         case '0' :
 618              		.loc 1 114 0
 619 006a 08BD     		pop	{r3, pc}
 620              	.L47:
 117:main.c        ****             
ARM GAS  C:\Users\LARSHO~1\AppData\Local\Temp\cc28nubw.s 			page 17


 621              		.loc 1 117 0
 622 006c FFF7FEFF 		bl	stop
 623              	.LVL47:
 120:main.c        ****           break;
 624              		.loc 1 120 0
 625 0070 08BD     		pop	{r3, pc}
 626              	.L51:
 124:main.c        ****             
 627              		.loc 1 124 0
 628 0072 FFF7FEFF 		bl	turnLeft
 629              	.LVL48:
 127:main.c        ****           break;
 630              		.loc 1 127 0
 631 0076 08BD     		pop	{r3, pc}
 632              	.L54:
 131:main.c        ****             
 633              		.loc 1 131 0
 634 0078 FFF7FEFF 		bl	turnRight
 635              	.LVL49:
 134:main.c        ****         case 't' :
 636              		.loc 1 134 0
 637 007c 08BD     		pop	{r3, pc}
 638              	.L53:
 137:main.c        ****             {
 639              		.loc 1 137 0
 640 007e 0020     		movs	r0, #0
 641 0080 FFF7FEFF 		bl	ADC_SAR_1_IsEndConversion
 642              	.LVL50:
 643 0084 18B1     		cbz	r0, .L45
 644              	.LVL51:
 645              	.LBB2:
 140:main.c        ****             ADC_SAR_1_SetOffset(offset);
 646              		.loc 1 140 0
 647 0086 FFF7FEFF 		bl	ADC_SAR_1_GetResult16
 648              	.LVL52:
 141:main.c        ****             }
 649              		.loc 1 141 0
 650 008a FFF7FEFF 		bl	ADC_SAR_1_SetOffset
 651              	.LVL53:
 652              	.L45:
 653 008e 08BD     		pop	{r3, pc}
 654              	.LBE2:
 655              		.cfi_endproc
 656              	.LFE67:
 657              		.size	handleByteReceived, .-handleByteReceived
 658              		.section	.text.ISR_UART_rx_handler,"ax",%progbits
 659              		.align	2
 660              		.global	ISR_UART_rx_handler
 661              		.thumb
 662              		.thumb_func
 663              		.type	ISR_UART_rx_handler, %function
 664              	ISR_UART_rx_handler:
 665              	.LFB66:
  77:main.c        **** 	//Read char from RX buffer and react
 666              		.loc 1 77 0
 667              		.cfi_startproc
 668              		@ args = 0, pretend = 0, frame = 0
ARM GAS  C:\Users\LARSHO~1\AppData\Local\Temp\cc28nubw.s 			page 18


 669              		@ frame_needed = 0, uses_anonymous_args = 0
 670 0000 38B5     		push	{r3, r4, r5, lr}
 671              		.cfi_def_cfa_offset 16
 672              		.cfi_offset 3, -16
 673              		.cfi_offset 4, -12
 674              		.cfi_offset 5, -8
 675              		.cfi_offset 14, -4
  79:main.c        ****     while (bytesToRead > 0)
 676              		.loc 1 79 0
 677 0002 FFF7FEFF 		bl	UART_1_GetRxBufferSize
 678              	.LVL54:
 679 0006 0446     		mov	r4, r0
 680              	.LVL55:
  80:main.c        ****     {
 681              		.loc 1 80 0
 682 0008 09E0     		b	.L58
 683              	.L59:
 684              	.LBB3:
  82:main.c        ****         UART_1_WriteTxData(byteReceived); // echo back
 685              		.loc 1 82 0
 686 000a FFF7FEFF 		bl	UART_1_ReadRxData
 687              	.LVL56:
 688 000e 0546     		mov	r5, r0
 689              	.LVL57:
  83:main.c        ****         
 690              		.loc 1 83 0
 691 0010 FFF7FEFF 		bl	UART_1_WriteTxData
 692              	.LVL58:
  85:main.c        ****         
 693              		.loc 1 85 0
 694 0014 2846     		mov	r0, r5
 695 0016 FFF7FEFF 		bl	handleByteReceived
 696              	.LVL59:
  87:main.c        ****     }
 697              		.loc 1 87 0
 698 001a 013C     		subs	r4, r4, #1
 699              	.LVL60:
 700 001c E4B2     		uxtb	r4, r4
 701              	.LVL61:
 702              	.L58:
 703              	.LBE3:
  80:main.c        ****     {
 704              		.loc 1 80 0
 705 001e 002C     		cmp	r4, #0
 706 0020 F3D1     		bne	.L59
  89:main.c        **** 
 707              		.loc 1 89 0
 708 0022 38BD     		pop	{r3, r4, r5, pc}
 709              		.cfi_endproc
 710              	.LFE66:
 711              		.size	ISR_UART_rx_handler, .-ISR_UART_rx_handler
 712              		.global	__aeabi_i2d
 713              		.global	__aeabi_dsub
 714              		.global	__aeabi_ddiv
 715              		.global	__aeabi_d2f
 716              		.global	__aeabi_f2d
 717              		.global	__aeabi_fcmplt
ARM GAS  C:\Users\LARSHO~1\AppData\Local\Temp\cc28nubw.s 			page 19


 718              		.section	.text.main,"ax",%progbits
 719              		.align	2
 720              		.global	main
 721              		.thumb
 722              		.thumb_func
 723              		.type	main, %function
 724              	main:
 725              	.LFB75:
 250:main.c        **** }
 251:main.c        **** 
 252:main.c        **** int main(void)
 253:main.c        **** {
 726              		.loc 1 253 0
 727              		.cfi_startproc
 728              		@ args = 0, pretend = 0, frame = 256
 729              		@ frame_needed = 0, uses_anonymous_args = 0
 730 0000 10B5     		push	{r4, lr}
 731              		.cfi_def_cfa_offset 8
 732              		.cfi_offset 4, -8
 733              		.cfi_offset 14, -4
 734 0002 C2B0     		sub	sp, sp, #264
 735              		.cfi_def_cfa_offset 272
 254:main.c        ****     CyGlobalIntEnable; /* Enable global interrupts. */
 736              		.loc 1 254 0
 737              		.syntax unified
 738              	@ 254 "main.c" 1
 739 0004 62B6     		CPSIE   i
 740              	@ 0 "" 2
 255:main.c        ****     /* Place your initialization/startup code here (e.g. MyInst_Start()) */
 256:main.c        ****     isr_uart_rx_StartEx(ISR_UART_rx_handler);
 741              		.loc 1 256 0
 742              		.thumb
 743              		.syntax unified
 744 0006 4648     		ldr	r0, .L70+16
 745 0008 FFF7FEFF 		bl	isr_uart_rx_StartEx
 746              	.LVL62:
 257:main.c        ****     isr_1_StartEx(sensor_ISR);
 747              		.loc 1 257 0
 748 000c 4548     		ldr	r0, .L70+20
 749 000e FFF7FEFF 		bl	isr_1_StartEx
 750              	.LVL63:
 258:main.c        ****     ISR_SPI_StartEx(ISR_SPI);
 751              		.loc 1 258 0
 752 0012 4548     		ldr	r0, .L70+24
 753 0014 FFF7FEFF 		bl	ISR_SPI_StartEx
 754              	.LVL64:
 259:main.c        ****     UART_1_Start();
 755              		.loc 1 259 0
 756 0018 FFF7FEFF 		bl	UART_1_Start
 757              	.LVL65:
 260:main.c        ****     SPI_Slave_Start();
 758              		.loc 1 260 0
 759 001c FFF7FEFF 		bl	SPI_Slave_Start
 760              	.LVL66:
 261:main.c        ****     ADC_SAR_1_Start();
 761              		.loc 1 261 0
 762 0020 FFF7FEFF 		bl	ADC_SAR_1_Start
ARM GAS  C:\Users\LARSHO~1\AppData\Local\Temp\cc28nubw.s 			page 20


 763              	.LVL67:
 262:main.c        ****     ADC_SAR_1_StartConvert();
 764              		.loc 1 262 0
 765 0024 FFF7FEFF 		bl	ADC_SAR_1_StartConvert
 766              	.LVL68:
 263:main.c        ****     PWM_M1_Start();    //PWM Motor1 (1hjul)
 767              		.loc 1 263 0
 768 0028 FFF7FEFF 		bl	PWM_M1_Start
 769              	.LVL69:
 264:main.c        ****     PWM_M2_Start();    //PWM Motor1 (1hjul)
 770              		.loc 1 264 0
 771 002c FFF7FEFF 		bl	PWM_M2_Start
 772              	.LVL70:
 265:main.c        ****     PWM_M3_Start();   //PWM Motor2 (2jhul)
 773              		.loc 1 265 0
 774 0030 FFF7FEFF 		bl	PWM_M3_Start
 775              	.LVL71:
 266:main.c        ****     PWM_M4_Start();   //PWM Motor2 (2hjul)
 776              		.loc 1 266 0
 777 0034 FFF7FEFF 		bl	PWM_M4_Start
 778              	.LVL72:
 267:main.c        ****     PWM_P_Start();
 779              		.loc 1 267 0
 780 0038 FFF7FEFF 		bl	PWM_P_Start
 781              	.LVL73:
 268:main.c        ****     char uartBuffer[256];
 269:main.c        ****   
 270:main.c        ****     
 271:main.c        ****     
 272:main.c        ****     
 273:main.c        ****     UART_1_PutString("DC-Motor-PWM application started\r\n");
 782              		.loc 1 273 0
 783 003c 3B48     		ldr	r0, .L70+28
 784 003e FFF7FEFF 		bl	UART_1_PutString
 785              	.LVL74:
 274:main.c        ****     UART_1_PutString("0: Stop\r\n");
 786              		.loc 1 274 0
 787 0042 3B48     		ldr	r0, .L70+32
 788 0044 FFF7FEFF 		bl	UART_1_PutString
 789              	.LVL75:
 275:main.c        ****     UART_1_PutString("1: Drive forwards\r\n");
 790              		.loc 1 275 0
 791 0048 3A48     		ldr	r0, .L70+36
 792 004a FFF7FEFF 		bl	UART_1_PutString
 793              	.LVL76:
 276:main.c        ****     UART_1_PutString("2: Drive backwards\r\n");
 794              		.loc 1 276 0
 795 004e 3A48     		ldr	r0, .L70+40
 796 0050 FFF7FEFF 		bl	UART_1_PutString
 797              	.LVL77:
 277:main.c        ****     UART_1_PutString("q: Decrease speed\r\n");
 798              		.loc 1 277 0
 799 0054 3948     		ldr	r0, .L70+44
 800 0056 FFF7FEFF 		bl	UART_1_PutString
 801              	.LVL78:
 278:main.c        ****     UART_1_PutString("w: Increase speed\r\n");
 802              		.loc 1 278 0
ARM GAS  C:\Users\LARSHO~1\AppData\Local\Temp\cc28nubw.s 			page 21


 803 005a 3948     		ldr	r0, .L70+48
 804 005c FFF7FEFF 		bl	UART_1_PutString
 805              	.LVL79:
 279:main.c        ****      PWM_P_WriteCompare(60);
 806              		.loc 1 279 0
 807 0060 3C20     		movs	r0, #60
 808 0062 FFF7FEFF 		bl	PWM_P_WriteCompare
 809              	.LVL80:
 810              	.L64:
 280:main.c        **** 
 281:main.c        ****     for(;;)
 282:main.c        ****     {
 283:main.c        ****         CyDelay(500);
 811              		.loc 1 283 0
 812 0066 4FF4FA70 		mov	r0, #500
 813 006a FFF7FEFF 		bl	CyDelay
 814              	.LVL81:
 284:main.c        ****        
 285:main.c        ****         //If and interrupt has occurred
 286:main.c        ****         //if(intFlag == 1)
 287:main.c        ****         //{
 288:main.c        ****             //intFlag = 0; //Reset to next interrupt
 289:main.c        ****             //char test[100];
 290:main.c        ****           //Looking at what is recevied
 291:main.c        ****             //snprintf(test,100," Den sendte integer er: %d\r\n",received );
 292:main.c        ****           //  UART_1_PutString(test); 
 293:main.c        ****             
 294:main.c        ****        
 295:main.c        ****         //}
 296:main.c        ****         UART_1_PutString("Broomba run\r\n");
 815              		.loc 1 296 0
 816 006e 3548     		ldr	r0, .L70+52
 817 0070 FFF7FEFF 		bl	UART_1_PutString
 818              	.LVL82:
 297:main.c        ****         if(sensorPushed == LEFT)
 819              		.loc 1 297 0
 820 0074 344B     		ldr	r3, .L70+56
 821 0076 DB78     		ldrb	r3, [r3, #3]	@ zero_extendqisi2
 822 0078 012B     		cmp	r3, #1
 823 007a 05D1     		bne	.L62
 298:main.c        ****         {
 299:main.c        ****             turnRight();
 824              		.loc 1 299 0
 825 007c FFF7FEFF 		bl	turnRight
 826              	.LVL83:
 300:main.c        ****             sensor = 0;
 827              		.loc 1 300 0
 828 0080 0022     		movs	r2, #0
 829 0082 314B     		ldr	r3, .L70+56
 830 0084 9A70     		strb	r2, [r3, #2]
 831 0086 06E0     		b	.L63
 832              	.L62:
 301:main.c        ****         } 
 302:main.c        ****         else if(sensorPushed == RIGHT)
 833              		.loc 1 302 0
 834 0088 022B     		cmp	r3, #2
 835 008a 04D1     		bne	.L63
ARM GAS  C:\Users\LARSHO~1\AppData\Local\Temp\cc28nubw.s 			page 22


 303:main.c        ****         {
 304:main.c        ****            turnLeft();
 836              		.loc 1 304 0
 837 008c FFF7FEFF 		bl	turnLeft
 838              	.LVL84:
 305:main.c        ****             sensor = 0;
 839              		.loc 1 305 0
 840 0090 0022     		movs	r2, #0
 841 0092 2D4B     		ldr	r3, .L70+56
 842 0094 9A70     		strb	r2, [r3, #2]
 843              	.L63:
 306:main.c        ****         }
 307:main.c        ****         Pin_1_ClearInterrupt();
 844              		.loc 1 307 0
 845 0096 FFF7FEFF 		bl	Pin_1_ClearInterrupt
 846              	.LVL85:
 308:main.c        ****         isr_1_ClearPending();
 847              		.loc 1 308 0
 848 009a FFF7FEFF 		bl	isr_1_ClearPending
 849              	.LVL86:
 309:main.c        ****         sensorPushed = 0;
 850              		.loc 1 309 0
 851 009e 0020     		movs	r0, #0
 852 00a0 294B     		ldr	r3, .L70+56
 853 00a2 D870     		strb	r0, [r3, #3]
 310:main.c        ****         
 311:main.c        ****          if (ADC_SAR_1_IsEndConversion(ADC_SAR_1_WAIT_FOR_RESULT))
 854              		.loc 1 311 0
 855 00a4 FFF7FEFF 		bl	ADC_SAR_1_IsEndConversion
 856              	.LVL87:
 857 00a8 0028     		cmp	r0, #0
 858 00aa DCD0     		beq	.L64
 859              	.LBB4:
 312:main.c        ****         {
 313:main.c        **** 			//Get current measurement from ADC
 314:main.c        ****             uint16_t result = ADC_SAR_1_GetResult16();
 860              		.loc 1 314 0
 861 00ac FFF7FEFF 		bl	ADC_SAR_1_GetResult16
 862              	.LVL88:
 863 00b0 84B2     		uxth	r4, r0
 864              	.LVL89:
 315:main.c        **** 			//Convert measurement to mV using the built-in function
 316:main.c        **** 			uint16_t resultInMVolts = ADC_SAR_1_CountsTo_mVolts(result); //
 865              		.loc 1 316 0
 866 00b2 FFF7FEFF 		bl	ADC_SAR_1_CountsTo_mVolts
 867              	.LVL90:
 317:main.c        **** 			//Convert to grams using linear function
 318:main.c        **** 			float convertedResult = (result - 1471.8)/1.4174;  
 868              		.loc 1 318 0
 869 00b6 2046     		mov	r0, r4
 870 00b8 FFF7FEFF 		bl	__aeabi_i2d
 871              	.LVL91:
 872 00bc 14A3     		adr	r3, .L70
 873 00be D3E90023 		ldrd	r2, [r3]
 874 00c2 FFF7FEFF 		bl	__aeabi_dsub
 875              	.LVL92:
 876 00c6 14A3     		adr	r3, .L70+8
ARM GAS  C:\Users\LARSHO~1\AppData\Local\Temp\cc28nubw.s 			page 23


 877 00c8 D3E90023 		ldrd	r2, [r3]
 878 00cc FFF7FEFF 		bl	__aeabi_ddiv
 879              	.LVL93:
 880 00d0 FFF7FEFF 		bl	__aeabi_d2f
 881              	.LVL94:
 882 00d4 0446     		mov	r4, r0
 883              	.LVL95:
 319:main.c        ****             //float convertedResult = result/1.4174;
 320:main.c        ****             
 321:main.c        ****             snprintf(uartBuffer,sizeof(uartBuffer),"Result er %f\r\n",convertedResult);
 884              		.loc 1 321 0
 885 00d6 FFF7FEFF 		bl	__aeabi_f2d
 886              	.LVL96:
 887 00da CDE90001 		strd	r0, [sp]
 888 00de 1B4A     		ldr	r2, .L70+60
 889 00e0 4FF48071 		mov	r1, #256
 890 00e4 02A8     		add	r0, sp, #8
 891 00e6 FFF7FEFF 		bl	snprintf
 892              	.LVL97:
 322:main.c        ****             UART_1_PutString(uartBuffer);
 893              		.loc 1 322 0
 894 00ea 02A8     		add	r0, sp, #8
 895 00ec FFF7FEFF 		bl	UART_1_PutString
 896              	.LVL98:
 323:main.c        ****             if (convertedResult < 100)
 897              		.loc 1 323 0
 898 00f0 1749     		ldr	r1, .L70+64
 899 00f2 2046     		mov	r0, r4
 900 00f4 FFF7FEFF 		bl	__aeabi_fcmplt
 901              	.LVL99:
 902 00f8 0028     		cmp	r0, #0
 903 00fa B4D0     		beq	.L64
 324:main.c        ****             {
 325:main.c        ****                 UART_1_PutString("Result er under 100\r\n");  
 904              		.loc 1 325 0
 905 00fc 1548     		ldr	r0, .L70+68
 906 00fe FFF7FEFF 		bl	UART_1_PutString
 907              	.LVL100:
 326:main.c        ****                 SPI_Slave_WriteTxData('V');
 908              		.loc 1 326 0
 909 0102 5620     		movs	r0, #86
 910 0104 FFF7FEFF 		bl	SPI_Slave_WriteTxData
 911              	.LVL101:
 912 0108 ADE7     		b	.L64
 913              	.L71:
 914 010a 00BFAFF3 		.align	3
 914      0080
 915              	.L70:
 916 0110 33333333 		.word	858993459
 917 0114 33FF9640 		.word	1083637555
 918 0118 3D9B559F 		.word	-1621779651
 919 011c ABADF63F 		.word	1073130923
 920 0120 00000000 		.word	ISR_UART_rx_handler
 921 0124 00000000 		.word	sensor_ISR
 922 0128 00000000 		.word	ISR_SPI
 923 012c A0000000 		.word	.LC8
 924 0130 C4000000 		.word	.LC9
ARM GAS  C:\Users\LARSHO~1\AppData\Local\Temp\cc28nubw.s 			page 24


 925 0134 D0000000 		.word	.LC10
 926 0138 E4000000 		.word	.LC11
 927 013c FC000000 		.word	.LC12
 928 0140 10010000 		.word	.LC13
 929 0144 24010000 		.word	.LC14
 930 0148 00000000 		.word	.LANCHOR0
 931 014c 34010000 		.word	.LC15
 932 0150 0000C842 		.word	1120403456
 933 0154 44010000 		.word	.LC16
 934              	.LBE4:
 935              		.cfi_endproc
 936              	.LFE75:
 937              		.size	main, .-main
 938              		.global	offsetADC
 939              		.global	forward
 940              		.global	speed
 941              		.global	intFlag
 942              		.global	received
 943              		.global	sensor
 944              		.global	backTimer
 945              		.global	turnSpeed
 946              		.data
 947              		.align	2
 948              		.set	.LANCHOR1,. + 0
 949              		.type	speed, %object
 950              		.size	speed, 1
 951              	speed:
 952 0000 32       		.byte	50
 953              		.type	forward, %object
 954              		.size	forward, 1
 955              	forward:
 956 0001 01       		.byte	1
 957 0002 0000     		.space	2
 958              		.type	backTimer, %object
 959              		.size	backTimer, 4
 960              	backTimer:
 961 0004 B80B0000 		.word	3000
 962              		.type	turnSpeed, %object
 963              		.size	turnSpeed, 4
 964              	turnSpeed:
 965 0008 B80B0000 		.word	3000
 966              		.section	.rodata.str1.4,"aMS",%progbits,1
 967              		.align	2
 968              	.LC0:
 969 0000 466C6167 		.ascii	"Flag bliver sat. Pin1\015\012\000"
 969      20626C69 
 969      76657220 
 969      7361742E 
 969      2050696E 
 970              	.LC1:
 971 0018 44656372 		.ascii	"Decreasing speed\015\012\000"
 971      65617369 
 971      6E672073 
 971      70656564 
 971      0D0A00
 972 002b 00       		.space	1
 973              	.LC2:
ARM GAS  C:\Users\LARSHO~1\AppData\Local\Temp\cc28nubw.s 			page 25


 974 002c 496E6372 		.ascii	"Increasing speed\015\012\000"
 974      65617369 
 974      6E672073 
 974      70656564 
 974      0D0A00
 975 003f 00       		.space	1
 976              	.LC3:
 977 0040 53746F70 		.ascii	"Stop\015\012\000"
 977      0D0A00
 978 0047 00       		.space	1
 979              	.LC4:
 980 0048 53657420 		.ascii	"Set direction: forwards\015\012\000"
 980      64697265 
 980      6374696F 
 980      6E3A2066 
 980      6F727761 
 981 0062 0000     		.space	2
 982              	.LC5:
 983 0064 53657420 		.ascii	"Set direction: backwards\015\012\000"
 983      64697265 
 983      6374696F 
 983      6E3A2062 
 983      61636B77 
 984 007f 00       		.space	1
 985              	.LC6:
 986 0080 5475726E 		.ascii	"Turning right\015\012\000"
 986      696E6720 
 986      72696768 
 986      740D0A00 
 987              	.LC7:
 988 0090 5475726E 		.ascii	"Turning left\015\012\000"
 988      696E6720 
 988      6C656674 
 988      0D0A00
 989 009f 00       		.space	1
 990              	.LC8:
 991 00a0 44432D4D 		.ascii	"DC-Motor-PWM application started\015\012\000"
 991      6F746F72 
 991      2D50574D 
 991      20617070 
 991      6C696361 
 992 00c3 00       		.space	1
 993              	.LC9:
 994 00c4 303A2053 		.ascii	"0: Stop\015\012\000"
 994      746F700D 
 994      0A00
 995 00ce 0000     		.space	2
 996              	.LC10:
 997 00d0 313A2044 		.ascii	"1: Drive forwards\015\012\000"
 997      72697665 
 997      20666F72 
 997      77617264 
 997      730D0A00 
 998              	.LC11:
 999 00e4 323A2044 		.ascii	"2: Drive backwards\015\012\000"
 999      72697665 
 999      20626163 
ARM GAS  C:\Users\LARSHO~1\AppData\Local\Temp\cc28nubw.s 			page 26


 999      6B776172 
 999      64730D0A 
 1000 00f9 000000   		.space	3
 1001              	.LC12:
 1002 00fc 713A2044 		.ascii	"q: Decrease speed\015\012\000"
 1002      65637265 
 1002      61736520 
 1002      73706565 
 1002      640D0A00 
 1003              	.LC13:
 1004 0110 773A2049 		.ascii	"w: Increase speed\015\012\000"
 1004      6E637265 
 1004      61736520 
 1004      73706565 
 1004      640D0A00 
 1005              	.LC14:
 1006 0124 42726F6F 		.ascii	"Broomba run\015\012\000"
 1006      6D626120 
 1006      72756E0D 
 1006      0A00
 1007 0132 0000     		.space	2
 1008              	.LC15:
 1009 0134 52657375 		.ascii	"Result er %f\015\012\000"
 1009      6C742065 
 1009      72202566 
 1009      0D0A00
 1010 0143 00       		.space	1
 1011              	.LC16:
 1012 0144 52657375 		.ascii	"Result er under 100\015\012\000"
 1012      6C742065 
 1012      7220756E 
 1012      64657220 
 1012      3130300D 
 1013              		.bss
 1014              		.align	1
 1015              		.set	.LANCHOR0,. + 0
 1016              		.type	received, %object
 1017              		.size	received, 1
 1018              	received:
 1019 0000 00       		.space	1
 1020              		.type	intFlag, %object
 1021              		.size	intFlag, 1
 1022              	intFlag:
 1023 0001 00       		.space	1
 1024              		.type	sensor, %object
 1025              		.size	sensor, 1
 1026              	sensor:
 1027 0002 00       		.space	1
 1028              		.type	sensorPushed, %object
 1029              		.size	sensorPushed, 1
 1030              	sensorPushed:
 1031 0003 00       		.space	1
 1032              		.type	offsetADC, %object
 1033              		.size	offsetADC, 2
 1034              	offsetADC:
 1035 0004 0000     		.space	2
 1036              		.text
ARM GAS  C:\Users\LARSHO~1\AppData\Local\Temp\cc28nubw.s 			page 27


 1037              	.Letext0:
 1038              		.file 2 "c:\\program files (x86)\\cypress\\psoc creator\\4.1\\psoc creator\\import\\gnu\\arm\\5.4.
 1039              		.file 3 "c:\\program files (x86)\\cypress\\psoc creator\\4.1\\psoc creator\\import\\gnu\\arm\\5.4.
 1040              		.file 4 "Generated_Source\\PSoC5/cytypes.h"
 1041              		.file 5 "Generated_Source\\PSoC5/core_cm3.h"
 1042              		.file 6 "Generated_Source\\PSoC5/SPI_Slave.h"
 1043              		.file 7 "Generated_Source\\PSoC5/Pin_1.h"
 1044              		.file 8 "Generated_Source\\PSoC5/UART_1.h"
 1045              		.file 9 "Generated_Source\\PSoC5/PWM_P.h"
 1046              		.file 10 "Generated_Source\\PSoC5/PWM_M2.h"
 1047              		.file 11 "Generated_Source\\PSoC5/PWM_M4.h"
 1048              		.file 12 "Generated_Source\\PSoC5/PWM_M1.h"
 1049              		.file 13 "Generated_Source\\PSoC5/PWM_M3.h"
 1050              		.file 14 "Generated_Source\\PSoC5/CyLib.h"
 1051              		.file 15 "Generated_Source\\PSoC5/ADC_SAR_1.h"
 1052              		.file 16 "c:\\program files (x86)\\cypress\\psoc creator\\4.1\\psoc creator\\import\\gnu\\arm\\5.4
 1053              		.file 17 "Generated_Source\\PSoC5/isr_uart_rx.h"
 1054              		.file 18 "Generated_Source\\PSoC5/isr_1.h"
 1055              		.file 19 "Generated_Source\\PSoC5/ISR_SPI.h"