ARM GAS  C:\Users\LARSHO~1\AppData\Local\Temp\ccubChmG.s 			page 1


   1              		.syntax unified
   2              		.cpu cortex-m3
   3              		.fpu softvfp
   4              		.eabi_attribute 20, 1
   5              		.eabi_attribute 21, 1
   6              		.eabi_attribute 23, 3
   7              		.eabi_attribute 24, 1
   8              		.eabi_attribute 25, 1
   9              		.eabi_attribute 26, 1
  10              		.eabi_attribute 30, 1
  11              		.eabi_attribute 34, 1
  12              		.eabi_attribute 18, 4
  13              		.thumb
  14              		.syntax unified
  15              		.file	"BatterySensor.c"
  16              		.text
  17              	.Ltext0:
  18              		.cfi_sections	.debug_frame
  19              		.global	__aeabi_i2f
  20              		.global	__aeabi_f2d
  21              		.global	__aeabi_dsub
  22              		.global	__aeabi_ddiv
  23              		.global	__aeabi_d2f
  24              		.global	__aeabi_dcmplt
  25              		.section	.text.checkBattery,"ax",%progbits
  26              		.align	2
  27              		.global	checkBattery
  28              		.thumb
  29              		.thumb_func
  30              		.type	checkBattery, %function
  31              	checkBattery:
  32              	.LFB64:
  33              		.file 1 "BatterySensor.c"
   1:BatterySensor.c **** /* ========================================
   2:BatterySensor.c ****  *
   3:BatterySensor.c ****  * Copyright YOUR COMPANY, THE YEAR
   4:BatterySensor.c ****  * All Rights Reserved
   5:BatterySensor.c ****  * UNPUBLISHED, LICENSED SOFTWARE.
   6:BatterySensor.c ****  *
   7:BatterySensor.c ****  * CONFIDENTIAL AND PROPRIETARY INFORMATION
   8:BatterySensor.c ****  * WHICH IS THE PROPERTY OF your company.
   9:BatterySensor.c ****  *
  10:BatterySensor.c ****  * ========================================
  11:BatterySensor.c **** */
  12:BatterySensor.c **** #include"project.h"
  13:BatterySensor.c **** #include"BatterySensor.h"
  14:BatterySensor.c **** #include <stdio.h>
  15:BatterySensor.c **** 
  16:BatterySensor.c **** #define CRITICAL_LEVEL 1.92       //1.92 V = 20% Battery Voltage 9,6 V
  17:BatterySensor.c **** 
  18:BatterySensor.c **** float voltage = 0;
  19:BatterySensor.c **** char uartBufferBattery[256];
  20:BatterySensor.c **** 
  21:BatterySensor.c **** void checkBattery()
  22:BatterySensor.c **** {
  34              		.loc 1 22 0
  35              		.cfi_startproc
ARM GAS  C:\Users\LARSHO~1\AppData\Local\Temp\ccubChmG.s 			page 2


  36              		@ args = 0, pretend = 0, frame = 0
  37              		@ frame_needed = 0, uses_anonymous_args = 0
  38 0000 30B5     		push	{r4, r5, lr}
  39              		.cfi_def_cfa_offset 12
  40              		.cfi_offset 4, -12
  41              		.cfi_offset 5, -8
  42              		.cfi_offset 14, -4
  43 0002 83B0     		sub	sp, sp, #12
  44              		.cfi_def_cfa_offset 24
  23:BatterySensor.c ****     if (ADC_SAR_1_IsEndConversion(ADC_SAR_1_WAIT_FOR_RESULT))
  45              		.loc 1 23 0
  46 0004 0020     		movs	r0, #0
  47 0006 FFF7FEFF 		bl	ADC_SAR_1_IsEndConversion
  48              	.LVL0:
  49 000a 80B3     		cbz	r0, .L2
  50              	.LBB2:
  24:BatterySensor.c ****         {
  25:BatterySensor.c ****             // Store result from conversion in result
  26:BatterySensor.c ****             float result = ADC_SAR_1_GetResult16();
  51              		.loc 1 26 0
  52 000c FFF7FEFF 		bl	ADC_SAR_1_GetResult16
  53              	.LVL1:
  54 0010 FFF7FEFF 		bl	__aeabi_i2f
  55              	.LVL2:
  27:BatterySensor.c ****             
  28:BatterySensor.c ****             voltage = (result-51.6)/397.6;  //x = (y-b)/a
  56              		.loc 1 28 0
  57 0014 FFF7FEFF 		bl	__aeabi_f2d
  58              	.LVL3:
  59 0018 19A3     		adr	r3, .L6
  60 001a D3E90023 		ldrd	r2, [r3]
  61 001e FFF7FEFF 		bl	__aeabi_dsub
  62              	.LVL4:
  63 0022 19A3     		adr	r3, .L6+8
  64 0024 D3E90023 		ldrd	r2, [r3]
  65 0028 FFF7FEFF 		bl	__aeabi_ddiv
  66              	.LVL5:
  67 002c FFF7FEFF 		bl	__aeabi_d2f
  68              	.LVL6:
  69 0030 194C     		ldr	r4, .L6+24
  70 0032 2060     		str	r0, [r4]	@ float
  29:BatterySensor.c ****                    
  30:BatterySensor.c ****             snprintf(uartBufferBattery, sizeof(uartBufferBattery), "%f \r\n", voltage);
  71              		.loc 1 30 0
  72 0034 194D     		ldr	r5, .L6+28
  73 0036 FFF7FEFF 		bl	__aeabi_f2d
  74              	.LVL7:
  75 003a CDE90001 		strd	r0, [sp]
  76 003e 184A     		ldr	r2, .L6+32
  77 0040 4FF48071 		mov	r1, #256
  78 0044 2846     		mov	r0, r5
  79 0046 FFF7FEFF 		bl	snprintf
  80              	.LVL8:
  31:BatterySensor.c ****             UART_1_PutString(uartBufferBattery);   //prints the measures weight in grams
  81              		.loc 1 31 0
  82 004a 2846     		mov	r0, r5
  83 004c FFF7FEFF 		bl	UART_1_PutString
ARM GAS  C:\Users\LARSHO~1\AppData\Local\Temp\ccubChmG.s 			page 3


  84              	.LVL9:
  32:BatterySensor.c ****             
  33:BatterySensor.c ****             if(voltage < CRITICAL_LEVEL)
  85              		.loc 1 33 0
  86 0050 2068     		ldr	r0, [r4]	@ float
  87 0052 FFF7FEFF 		bl	__aeabi_f2d
  88              	.LVL10:
  89 0056 0EA3     		adr	r3, .L6+16
  90 0058 D3E90023 		ldrd	r2, [r3]
  91 005c FFF7FEFF 		bl	__aeabi_dcmplt
  92              	.LVL11:
  93 0060 28B1     		cbz	r0, .L2
  34:BatterySensor.c ****             {
  35:BatterySensor.c ****             UART_1_PutString("Voltage level too low. Stop Broomba");   //prints the measures weight
  94              		.loc 1 35 0
  95 0062 1048     		ldr	r0, .L6+36
  96 0064 FFF7FEFF 		bl	UART_1_PutString
  97              	.LVL12:
  36:BatterySensor.c ****             SPI_Slave_WriteTxData('B');
  98              		.loc 1 36 0
  99 0068 4220     		movs	r0, #66
 100 006a FFF7FEFF 		bl	SPI_Slave_WriteTxData
 101              	.LVL13:
 102              	.L2:
 103              	.LBE2:
  37:BatterySensor.c ****             }
  38:BatterySensor.c ****             
  39:BatterySensor.c ****         }
  40:BatterySensor.c ****         CyDelay(500);
 104              		.loc 1 40 0
 105 006e 4FF4FA70 		mov	r0, #500
 106 0072 FFF7FEFF 		bl	CyDelay
 107              	.LVL14:
  41:BatterySensor.c **** }
 108              		.loc 1 41 0
 109 0076 03B0     		add	sp, sp, #12
 110              		.cfi_def_cfa_offset 12
 111              		@ sp needed
 112 0078 30BD     		pop	{r4, r5, pc}
 113              	.L7:
 114 007a 00BFAFF3 		.align	3
 114      0080
 115              	.L6:
 116 0080 CDCCCCCC 		.word	-858993459
 117 0084 CCCC4940 		.word	1078578380
 118 0088 9A999999 		.word	-1717986918
 119 008c 99D97840 		.word	1081661849
 120 0090 B81E85EB 		.word	-343597384
 121 0094 51B8FE3F 		.word	1073657937
 122 0098 00000000 		.word	.LANCHOR0
 123 009c 00000000 		.word	uartBufferBattery
 124 00a0 00000000 		.word	.LC0
 125 00a4 08000000 		.word	.LC1
 126              		.cfi_endproc
 127              	.LFE64:
 128              		.size	checkBattery, .-checkBattery
 129              		.comm	uartBufferBattery,256,4
ARM GAS  C:\Users\LARSHO~1\AppData\Local\Temp\ccubChmG.s 			page 4


 130              		.global	voltage
 131              		.section	.rodata.str1.4,"aMS",%progbits,1
 132              		.align	2
 133              	.LC0:
 134 0000 2566200D 		.ascii	"%f \015\012\000"
 134      0A00
 135 0006 0000     		.space	2
 136              	.LC1:
 137 0008 566F6C74 		.ascii	"Voltage level too low. Stop Broomba\000"
 137      61676520 
 137      6C657665 
 137      6C20746F 
 137      6F206C6F 
 138              		.bss
 139              		.align	2
 140              		.set	.LANCHOR0,. + 0
 141              		.type	voltage, %object
 142              		.size	voltage, 4
 143              	voltage:
 144 0000 00000000 		.space	4
 145              		.text
 146              	.Letext0:
 147              		.file 2 "c:\\program files (x86)\\cypress\\psoc creator\\4.1\\psoc creator\\import\\gnu\\arm\\5.4.
 148              		.file 3 "c:\\program files (x86)\\cypress\\psoc creator\\4.1\\psoc creator\\import\\gnu\\arm\\5.4.
 149              		.file 4 "Generated_Source\\PSoC5/core_cm3.h"
 150              		.file 5 "Generated_Source\\PSoC5/ADC_SAR_1.h"
 151              		.file 6 "c:\\program files (x86)\\cypress\\psoc creator\\4.1\\psoc creator\\import\\gnu\\arm\\5.4.
 152              		.file 7 "Generated_Source\\PSoC5/UART_1.h"
 153              		.file 8 "Generated_Source\\PSoC5/SPI_Slave.h"
 154              		.file 9 "Generated_Source\\PSoC5/CyLib.h"