ARM GAS  C:\Users\LARSHO~1\AppData\Local\Temp\ccdrfOUa.s 			page 1


   1              		.syntax unified
   2              		.cpu cortex-m3
   3              		.fpu softvfp
   4              		.eabi_attribute 20, 1
   5              		.eabi_attribute 21, 1
   6              		.eabi_attribute 23, 3
   7              		.eabi_attribute 24, 1
   8              		.eabi_attribute 25, 1
   9              		.eabi_attribute 26, 1
  10              		.eabi_attribute 30, 1
  11              		.eabi_attribute 34, 1
  12              		.eabi_attribute 18, 4
  13              		.thumb
  14              		.syntax unified
  15              		.file	"LoadCell.c"
  16              		.text
  17              	.Ltext0:
  18              		.cfi_sections	.debug_frame
  19              		.global	__aeabi_i2d
  20              		.global	__aeabi_dsub
  21              		.global	__aeabi_ddiv
  22              		.global	__aeabi_d2f
  23              		.global	__aeabi_f2d
  24              		.global	__aeabi_fcmplt
  25              		.section	.text.checkLoad,"ax",%progbits
  26              		.align	2
  27              		.global	checkLoad
  28              		.thumb
  29              		.thumb_func
  30              		.type	checkLoad, %function
  31              	checkLoad:
  32              	.LFB64:
  33              		.file 1 "LoadCell.c"
   1:LoadCell.c    **** /* ========================================
   2:LoadCell.c    ****  *
   3:LoadCell.c    ****  * Copyright YOUR COMPANY, THE YEAR
   4:LoadCell.c    ****  * All Rights Reserved
   5:LoadCell.c    ****  * UNPUBLISHED, LICENSED SOFTWARE.
   6:LoadCell.c    ****  *
   7:LoadCell.c    ****  * CONFIDENTIAL AND PROPRIETARY INFORMATION
   8:LoadCell.c    ****  * WHICH IS THE PROPERTY OF your company.
   9:LoadCell.c    ****  *
  10:LoadCell.c    ****  * ========================================
  11:LoadCell.c    **** */
  12:LoadCell.c    **** #include"LoadCell.h"
  13:LoadCell.c    **** #include"project.h"
  14:LoadCell.c    **** #include <stdio.h>
  15:LoadCell.c    **** 
  16:LoadCell.c    **** char uartBufferLoad[256];
  17:LoadCell.c    **** 
  18:LoadCell.c    **** void checkLoad()
  19:LoadCell.c    **** {
  34              		.loc 1 19 0
  35              		.cfi_startproc
  36              		@ args = 0, pretend = 0, frame = 0
  37              		@ frame_needed = 0, uses_anonymous_args = 0
  38 0000 30B5     		push	{r4, r5, lr}
ARM GAS  C:\Users\LARSHO~1\AppData\Local\Temp\ccdrfOUa.s 			page 2


  39              		.cfi_def_cfa_offset 12
  40              		.cfi_offset 4, -12
  41              		.cfi_offset 5, -8
  42              		.cfi_offset 14, -4
  43 0002 83B0     		sub	sp, sp, #12
  44              		.cfi_def_cfa_offset 24
  20:LoadCell.c    ****     if (ADC_SAR_1_IsEndConversion(ADC_SAR_1_WAIT_FOR_RESULT))
  45              		.loc 1 20 0
  46 0004 0020     		movs	r0, #0
  47 0006 FFF7FEFF 		bl	ADC_SAR_1_IsEndConversion
  48              	.LVL0:
  49 000a 68B3     		cbz	r0, .L1
  50              	.LBB2:
  21:LoadCell.c    ****         {
  22:LoadCell.c    **** 			//Get current measurement from ADC
  23:LoadCell.c    ****             uint16_t result = ADC_SAR_1_GetResult16();
  51              		.loc 1 23 0
  52 000c FFF7FEFF 		bl	ADC_SAR_1_GetResult16
  53              	.LVL1:
  54 0010 84B2     		uxth	r4, r0
  55              	.LVL2:
  24:LoadCell.c    **** 			//Convert measurement to mV using the built-in function
  25:LoadCell.c    **** 			uint16_t resultInMVolts = ADC_SAR_1_CountsTo_mVolts(result); //
  56              		.loc 1 25 0
  57 0012 FFF7FEFF 		bl	ADC_SAR_1_CountsTo_mVolts
  58              	.LVL3:
  26:LoadCell.c    **** 			//Convert to grams using linear function
  27:LoadCell.c    **** 			float convertedResult = (result - 1471.8)/1.4174;  
  59              		.loc 1 27 0
  60 0016 2046     		mov	r0, r4
  61 0018 FFF7FEFF 		bl	__aeabi_i2d
  62              	.LVL4:
  63 001c 14A3     		adr	r3, .L6
  64 001e D3E90023 		ldrd	r2, [r3]
  65 0022 FFF7FEFF 		bl	__aeabi_dsub
  66              	.LVL5:
  67 0026 14A3     		adr	r3, .L6+8
  68 0028 D3E90023 		ldrd	r2, [r3]
  69 002c FFF7FEFF 		bl	__aeabi_ddiv
  70              	.LVL6:
  71 0030 FFF7FEFF 		bl	__aeabi_d2f
  72              	.LVL7:
  73 0034 0546     		mov	r5, r0
  74              	.LVL8:
  28:LoadCell.c    ****             //float convertedResult = result/1.4174;
  29:LoadCell.c    ****             
  30:LoadCell.c    ****             snprintf(uartBufferLoad,sizeof(uartBufferLoad),"Result er %f\r\n",convertedResult);
  75              		.loc 1 30 0
  76 0036 124C     		ldr	r4, .L6+16
  77              	.LVL9:
  78 0038 FFF7FEFF 		bl	__aeabi_f2d
  79              	.LVL10:
  80 003c CDE90001 		strd	r0, [sp]
  81 0040 104A     		ldr	r2, .L6+20
  82 0042 4FF48071 		mov	r1, #256
  83 0046 2046     		mov	r0, r4
  84 0048 FFF7FEFF 		bl	snprintf
ARM GAS  C:\Users\LARSHO~1\AppData\Local\Temp\ccdrfOUa.s 			page 3


  85              	.LVL11:
  31:LoadCell.c    ****             UART_1_PutString(uartBufferLoad);
  86              		.loc 1 31 0
  87 004c 2046     		mov	r0, r4
  88 004e FFF7FEFF 		bl	UART_1_PutString
  89              	.LVL12:
  32:LoadCell.c    ****             if (convertedResult < 100)
  90              		.loc 1 32 0
  91 0052 0D49     		ldr	r1, .L6+24
  92 0054 2846     		mov	r0, r5
  93 0056 FFF7FEFF 		bl	__aeabi_fcmplt
  94              	.LVL13:
  95 005a 28B1     		cbz	r0, .L1
  33:LoadCell.c    ****             {
  34:LoadCell.c    ****                 UART_1_PutString("Result er under 100\r\n");  
  96              		.loc 1 34 0
  97 005c 0B48     		ldr	r0, .L6+28
  98 005e FFF7FEFF 		bl	UART_1_PutString
  99              	.LVL14:
  35:LoadCell.c    ****                 SPI_Slave_WriteTxData('V');
 100              		.loc 1 35 0
 101 0062 5620     		movs	r0, #86
 102 0064 FFF7FEFF 		bl	SPI_Slave_WriteTxData
 103              	.LVL15:
 104              	.L1:
 105              	.LBE2:
  36:LoadCell.c    ****             }
  37:LoadCell.c    ****         }
  38:LoadCell.c    **** }
 106              		.loc 1 38 0
 107 0068 03B0     		add	sp, sp, #12
 108              		.cfi_def_cfa_offset 12
 109              		@ sp needed
 110 006a 30BD     		pop	{r4, r5, pc}
 111              	.L7:
 112 006c AFF30080 		.align	3
 113              	.L6:
 114 0070 33333333 		.word	858993459
 115 0074 33FF9640 		.word	1083637555
 116 0078 3D9B559F 		.word	-1621779651
 117 007c ABADF63F 		.word	1073130923
 118 0080 00000000 		.word	uartBufferLoad
 119 0084 00000000 		.word	.LC0
 120 0088 0000C842 		.word	1120403456
 121 008c 10000000 		.word	.LC1
 122              		.cfi_endproc
 123              	.LFE64:
 124              		.size	checkLoad, .-checkLoad
 125              		.comm	uartBufferLoad,256,4
 126              		.section	.rodata.str1.4,"aMS",%progbits,1
 127              		.align	2
 128              	.LC0:
 129 0000 52657375 		.ascii	"Result er %f\015\012\000"
 129      6C742065 
 129      72202566 
 129      0D0A00
 130 000f 00       		.space	1
ARM GAS  C:\Users\LARSHO~1\AppData\Local\Temp\ccdrfOUa.s 			page 4


 131              	.LC1:
 132 0010 52657375 		.ascii	"Result er under 100\015\012\000"
 132      6C742065 
 132      7220756E 
 132      64657220 
 132      3130300D 
 133              		.text
 134              	.Letext0:
 135              		.file 2 "c:\\program files (x86)\\cypress\\psoc creator\\4.1\\psoc creator\\import\\gnu\\arm\\5.4.
 136              		.file 3 "c:\\program files (x86)\\cypress\\psoc creator\\4.1\\psoc creator\\import\\gnu\\arm\\5.4.
 137              		.file 4 "Generated_Source\\PSoC5/core_cm3.h"
 138              		.file 5 "Generated_Source\\PSoC5/ADC_SAR_1.h"
 139              		.file 6 "c:\\program files (x86)\\cypress\\psoc creator\\4.1\\psoc creator\\import\\gnu\\arm\\5.4.
 140              		.file 7 "Generated_Source\\PSoC5/UART_1.h"
 141              		.file 8 "Generated_Source\\PSoC5/SPI_Slave.h"