ARM GAS  C:\Users\LARSHO~1\AppData\Local\Temp\ccXj1XmK.s 			page 1


   1              		.syntax unified
   2              		.cpu cortex-m3
   3              		.fpu softvfp
   4              		.eabi_attribute 20, 1
   5              		.eabi_attribute 21, 1
   6              		.eabi_attribute 23, 3
   7              		.eabi_attribute 24, 1
   8              		.eabi_attribute 25, 1
   9              		.eabi_attribute 26, 1
  10              		.eabi_attribute 30, 1
  11              		.eabi_attribute 34, 1
  12              		.eabi_attribute 18, 4
  13              		.thumb
  14              		.syntax unified
  15              		.file	"main.c"
  16              		.text
  17              	.Ltext0:
  18              		.cfi_sections	.debug_frame
  19              		.section	.text.ISR_SPI,"ax",%progbits
  20              		.align	2
  21              		.global	ISR_SPI
  22              		.thumb
  23              		.thumb_func
  24              		.type	ISR_SPI, %function
  25              	ISR_SPI:
  26              	.LFB64:
  27              		.file 1 "main.c"
   1:main.c        **** /* ========================================
   2:main.c        ****  *
   3:main.c        ****  * Copyright YOUR COMPANY, THE YEAR
   4:main.c        ****  * All Rights Reserved
   5:main.c        ****  * UNPUBLISHED, LICENSED SOFTWARE.
   6:main.c        ****  *
   7:main.c        ****  * CONFIDENTIAL AND PROPRIETARY INFORMATION
   8:main.c        ****  * WHICH IS THE PROPERTY OF your company.
   9:main.c        **** 
  10:main.c        **** 
  11:main.c        ****  * OPS PUMPE 40% pwm
  12:main.c        ****  * ========================================
  13:main.c        **** */
  14:main.c        **** #include "project.h"
  15:main.c        **** #include <CyLib.h>
  16:main.c        **** #include <stdio.h>
  17:main.c        **** #include <stdlib.h>
  18:main.c        **** #include "Motor.h"
  19:main.c        **** #include "BatterySensor.h"
  20:main.c        **** #include "LoadCell.h"
  21:main.c        **** 
  22:main.c        **** #define LEFT 1u
  23:main.c        **** #define RIGHT 2u
  24:main.c        **** 
  25:main.c        **** 
  26:main.c        **** 
  27:main.c        **** volatile uint8_t sensor = 0;
  28:main.c        **** volatile uint8_t received = 0; //Varaible to store received data
  29:main.c        **** volatile uint8_t intFlag = 0; //Variable to indicate if there have been an interrupt
  30:main.c        **** 
ARM GAS  C:\Users\LARSHO~1\AppData\Local\Temp\ccXj1XmK.s 			page 2


  31:main.c        **** static uint8 sensorPushed = 0;
  32:main.c        **** 
  33:main.c        **** CY_ISR_PROTO(ISR_SPI); //Interrupt prototype
  34:main.c        **** CY_ISR(ISR_SPI) //Interrupt service routine
  35:main.c        **** {
  28              		.loc 1 35 0
  29              		.cfi_startproc
  30              		@ args = 0, pretend = 0, frame = 0
  31              		@ frame_needed = 0, uses_anonymous_args = 0
  32 0000 08B5     		push	{r3, lr}
  33              		.cfi_def_cfa_offset 8
  34              		.cfi_offset 3, -8
  35              		.cfi_offset 14, -4
  36:main.c        ****     received = SPI_Slave_ReadRxData(); //Storing the received data
  36              		.loc 1 36 0
  37 0002 FFF7FEFF 		bl	SPI_Slave_ReadRxData
  38              	.LVL0:
  39 0006 044B     		ldr	r3, .L3
  40 0008 1870     		strb	r0, [r3]
  37:main.c        ****     intFlag = 1; //Indicating that an interrupt has occurred
  41              		.loc 1 37 0
  42 000a 0122     		movs	r2, #1
  43 000c 5A70     		strb	r2, [r3, #1]
  38:main.c        ****     SPI_Slave_ClearRxBuffer(); //Clearing the RX buffer
  44              		.loc 1 38 0
  45 000e FFF7FEFF 		bl	SPI_Slave_ClearRxBuffer
  46              	.LVL1:
  39:main.c        ****     SPI_Slave_ClearFIFO(); //Clearing the FIFO register
  47              		.loc 1 39 0
  48 0012 FFF7FEFF 		bl	SPI_Slave_ClearFIFO
  49              	.LVL2:
  50 0016 08BD     		pop	{r3, pc}
  51              	.L4:
  52              		.align	2
  53              	.L3:
  54 0018 00000000 		.word	.LANCHOR0
  55              		.cfi_endproc
  56              	.LFE64:
  57              		.size	ISR_SPI, .-ISR_SPI
  58              		.section	.text.sensor_ISR,"ax",%progbits
  59              		.align	2
  60              		.global	sensor_ISR
  61              		.thumb
  62              		.thumb_func
  63              		.type	sensor_ISR, %function
  64              	sensor_ISR:
  65              	.LFB65:
  40:main.c        **** }
  41:main.c        **** 
  42:main.c        **** CY_ISR(sensor_ISR)
  43:main.c        **** {
  66              		.loc 1 43 0
  67              		.cfi_startproc
  68              		@ args = 0, pretend = 0, frame = 0
  69              		@ frame_needed = 0, uses_anonymous_args = 0
  70 0000 08B5     		push	{r3, lr}
  71              		.cfi_def_cfa_offset 8
ARM GAS  C:\Users\LARSHO~1\AppData\Local\Temp\ccXj1XmK.s 			page 3


  72              		.cfi_offset 3, -8
  73              		.cfi_offset 14, -4
  44:main.c        ****     if(!sensor)
  74              		.loc 1 44 0
  75 0002 0D4B     		ldr	r3, .L9
  76 0004 9B78     		ldrb	r3, [r3, #2]	@ zero_extendqisi2
  77 0006 13F0FF0F 		tst	r3, #255
  78 000a 12D1     		bne	.L6
  45:main.c        ****     {
  46:main.c        ****     sensor = Pin_1_Read();
  79              		.loc 1 46 0
  80 000c FFF7FEFF 		bl	Pin_1_Read
  81              	.LVL3:
  82 0010 094B     		ldr	r3, .L9
  83 0012 9870     		strb	r0, [r3, #2]
  47:main.c        ****     UART_1_PutString("Flag bliver sat. Pin1\r\n");
  84              		.loc 1 47 0
  85 0014 0948     		ldr	r0, .L9+4
  86 0016 FFF7FEFF 		bl	UART_1_PutString
  87              	.LVL4:
  48:main.c        ****      if(Pin_1_INTSTAT & (0x01 << Pin_1_SHIFT))
  88              		.loc 1 48 0
  89 001a 094B     		ldr	r3, .L9+8
  90 001c 1B78     		ldrb	r3, [r3]	@ zero_extendqisi2
  91 001e 13F0010F 		tst	r3, #1
  92 0022 03D0     		beq	.L7
  49:main.c        ****     {
  50:main.c        ****         sensorPushed = LEFT;
  93              		.loc 1 50 0
  94 0024 0122     		movs	r2, #1
  95 0026 044B     		ldr	r3, .L9
  96 0028 DA70     		strb	r2, [r3, #3]
  97 002a 02E0     		b	.L6
  98              	.L7:
  51:main.c        ****     }
  52:main.c        ****     else
  53:main.c        ****     {
  54:main.c        ****         sensorPushed = RIGHT;
  99              		.loc 1 54 0
 100 002c 0222     		movs	r2, #2
 101 002e 024B     		ldr	r3, .L9
 102 0030 DA70     		strb	r2, [r3, #3]
 103              	.L6:
  55:main.c        ****     }
  56:main.c        ****     }
  57:main.c        ****     
  58:main.c        ****      Pin_1_ClearInterrupt(); // Clears interrupt, makes ready for new one
 104              		.loc 1 58 0
 105 0032 FFF7FEFF 		bl	Pin_1_ClearInterrupt
 106              	.LVL5:
 107 0036 08BD     		pop	{r3, pc}
 108              	.L10:
 109              		.align	2
 110              	.L9:
 111 0038 00000000 		.word	.LANCHOR0
 112 003c 00000000 		.word	.LC0
 113 0040 80450040 		.word	1073759616
ARM GAS  C:\Users\LARSHO~1\AppData\Local\Temp\ccXj1XmK.s 			page 4


 114              		.cfi_endproc
 115              	.LFE65:
 116              		.size	sensor_ISR, .-sensor_ISR
 117              		.section	.text.handleByteReceived,"ax",%progbits
 118              		.align	2
 119              		.global	handleByteReceived
 120              		.thumb
 121              		.thumb_func
 122              		.type	handleByteReceived, %function
 123              	handleByteReceived:
 124              	.LFB67:
  59:main.c        ****     
  60:main.c        **** }
  61:main.c        **** 
  62:main.c        **** CY_ISR_PROTO(ISR_UART_rx_handler);
  63:main.c        **** void handleByteReceived(uint8_t byteReceived);
  64:main.c        **** CY_ISR(ISR_UART_rx_handler)
  65:main.c        **** {
  66:main.c        **** 	//Read char from RX buffer and react
  67:main.c        ****     uint8_t bytesToRead = UART_1_GetRxBufferSize();
  68:main.c        ****     while (bytesToRead > 0)
  69:main.c        ****     {
  70:main.c        ****         uint8_t byteReceived = UART_1_ReadRxData();
  71:main.c        ****         UART_1_WriteTxData(byteReceived); // echo back
  72:main.c        ****         
  73:main.c        ****         handleByteReceived(byteReceived);
  74:main.c        ****         
  75:main.c        ****         bytesToRead--;
  76:main.c        ****     }
  77:main.c        **** }
  78:main.c        **** void handleByteReceived(uint8_t byteReceived)
  79:main.c        **** {
 125              		.loc 1 79 0
 126              		.cfi_startproc
 127              		@ args = 0, pretend = 0, frame = 0
 128              		@ frame_needed = 0, uses_anonymous_args = 0
 129              	.LVL6:
 130 0000 08B5     		push	{r3, lr}
 131              		.cfi_def_cfa_offset 8
 132              		.cfi_offset 3, -8
 133              		.cfi_offset 14, -4
  80:main.c        ****     switch(byteReceived)
 134              		.loc 1 80 0
 135 0002 3038     		subs	r0, r0, #48
 136              	.LVL7:
 137 0004 4728     		cmp	r0, #71
 138 0006 42D8     		bhi	.L11
 139 0008 DFE800F0 		tbb	[pc, r0]
 140              	.L14:
 141 000c 30       		.byte	(.L13-.L14)/2
 142 000d 2A       		.byte	(.L15-.L14)/2
 143 000e 2D       		.byte	(.L16-.L14)/2
 144 000f 41       		.byte	(.L11-.L14)/2
 145 0010 41       		.byte	(.L11-.L14)/2
 146 0011 41       		.byte	(.L11-.L14)/2
 147 0012 41       		.byte	(.L11-.L14)/2
 148 0013 41       		.byte	(.L11-.L14)/2
ARM GAS  C:\Users\LARSHO~1\AppData\Local\Temp\ccXj1XmK.s 			page 5


 149 0014 41       		.byte	(.L11-.L14)/2
 150 0015 41       		.byte	(.L11-.L14)/2
 151 0016 41       		.byte	(.L11-.L14)/2
 152 0017 41       		.byte	(.L11-.L14)/2
 153 0018 41       		.byte	(.L11-.L14)/2
 154 0019 41       		.byte	(.L11-.L14)/2
 155 001a 41       		.byte	(.L11-.L14)/2
 156 001b 41       		.byte	(.L11-.L14)/2
 157 001c 41       		.byte	(.L11-.L14)/2
 158 001d 41       		.byte	(.L11-.L14)/2
 159 001e 41       		.byte	(.L11-.L14)/2
 160 001f 41       		.byte	(.L11-.L14)/2
 161 0020 41       		.byte	(.L11-.L14)/2
 162 0021 41       		.byte	(.L11-.L14)/2
 163 0022 41       		.byte	(.L11-.L14)/2
 164 0023 41       		.byte	(.L11-.L14)/2
 165 0024 41       		.byte	(.L11-.L14)/2
 166 0025 41       		.byte	(.L11-.L14)/2
 167 0026 41       		.byte	(.L11-.L14)/2
 168 0027 41       		.byte	(.L11-.L14)/2
 169 0028 41       		.byte	(.L11-.L14)/2
 170 0029 41       		.byte	(.L11-.L14)/2
 171 002a 41       		.byte	(.L11-.L14)/2
 172 002b 41       		.byte	(.L11-.L14)/2
 173 002c 41       		.byte	(.L11-.L14)/2
 174 002d 41       		.byte	(.L11-.L14)/2
 175 002e 41       		.byte	(.L11-.L14)/2
 176 002f 41       		.byte	(.L11-.L14)/2
 177 0030 41       		.byte	(.L11-.L14)/2
 178 0031 41       		.byte	(.L11-.L14)/2
 179 0032 41       		.byte	(.L11-.L14)/2
 180 0033 41       		.byte	(.L11-.L14)/2
 181 0034 41       		.byte	(.L11-.L14)/2
 182 0035 41       		.byte	(.L11-.L14)/2
 183 0036 41       		.byte	(.L11-.L14)/2
 184 0037 41       		.byte	(.L11-.L14)/2
 185 0038 41       		.byte	(.L11-.L14)/2
 186 0039 41       		.byte	(.L11-.L14)/2
 187 003a 41       		.byte	(.L11-.L14)/2
 188 003b 41       		.byte	(.L11-.L14)/2
 189 003c 41       		.byte	(.L11-.L14)/2
 190 003d 41       		.byte	(.L11-.L14)/2
 191 003e 41       		.byte	(.L11-.L14)/2
 192 003f 41       		.byte	(.L11-.L14)/2
 193 0040 41       		.byte	(.L11-.L14)/2
 194 0041 41       		.byte	(.L11-.L14)/2
 195 0042 41       		.byte	(.L11-.L14)/2
 196 0043 41       		.byte	(.L11-.L14)/2
 197 0044 33       		.byte	(.L17-.L14)/2
 198 0045 41       		.byte	(.L11-.L14)/2
 199 0046 41       		.byte	(.L11-.L14)/2
 200 0047 41       		.byte	(.L11-.L14)/2
 201 0048 41       		.byte	(.L11-.L14)/2
 202 0049 41       		.byte	(.L11-.L14)/2
 203 004a 41       		.byte	(.L11-.L14)/2
 204 004b 41       		.byte	(.L11-.L14)/2
 205 004c 41       		.byte	(.L11-.L14)/2
ARM GAS  C:\Users\LARSHO~1\AppData\Local\Temp\ccXj1XmK.s 			page 6


 206 004d 24       		.byte	(.L18-.L14)/2
 207 004e 41       		.byte	(.L11-.L14)/2
 208 004f 41       		.byte	(.L11-.L14)/2
 209 0050 39       		.byte	(.L19-.L14)/2
 210 0051 41       		.byte	(.L11-.L14)/2
 211 0052 36       		.byte	(.L20-.L14)/2
 212 0053 27       		.byte	(.L21-.L14)/2
 213              		.p2align 1
 214              	.L18:
  81:main.c        ****     {
  82:main.c        ****         case 'q' :
  83:main.c        ****         {
  84:main.c        ****             decreaseSpeed();
 215              		.loc 1 84 0
 216 0054 FFF7FEFF 		bl	decreaseSpeed
 217              	.LVL8:
  85:main.c        ****         }
  86:main.c        ****         break;
 218              		.loc 1 86 0
 219 0058 08BD     		pop	{r3, pc}
 220              	.L21:
  87:main.c        ****         case 'w' :
  88:main.c        ****         {
  89:main.c        ****             increaseSpeed();
 221              		.loc 1 89 0
 222 005a FFF7FEFF 		bl	increaseSpeed
 223              	.LVL9:
  90:main.c        ****         }
  91:main.c        ****         break;
 224              		.loc 1 91 0
 225 005e 08BD     		pop	{r3, pc}
 226              	.L15:
  92:main.c        ****         case '1' :
  93:main.c        ****         {
  94:main.c        ****             driveForwards();
 227              		.loc 1 94 0
 228 0060 FFF7FEFF 		bl	driveForwards
 229              	.LVL10:
  95:main.c        ****         }
  96:main.c        ****         break;
 230              		.loc 1 96 0
 231 0064 08BD     		pop	{r3, pc}
 232              	.L16:
  97:main.c        ****         case '2' :
  98:main.c        ****         {
  99:main.c        ****             driveBackwards();
 233              		.loc 1 99 0
 234 0066 FFF7FEFF 		bl	driveBackwards
 235              	.LVL11:
 100:main.c        ****         }
 101:main.c        ****         break;
 236              		.loc 1 101 0
 237 006a 08BD     		pop	{r3, pc}
 238              	.L13:
 102:main.c        ****         case '0' :
 103:main.c        ****         {
 104:main.c        ****             stop();
ARM GAS  C:\Users\LARSHO~1\AppData\Local\Temp\ccXj1XmK.s 			page 7


 239              		.loc 1 104 0
 240 006c FFF7FEFF 		bl	stop
 241              	.LVL12:
 105:main.c        ****             
 106:main.c        ****         }
 107:main.c        ****         break;
 242              		.loc 1 107 0
 243 0070 08BD     		pop	{r3, pc}
 244              	.L17:
 108:main.c        ****           break;
 109:main.c        ****         case 'h' :
 110:main.c        ****         {
 111:main.c        ****             turnLeft();
 245              		.loc 1 111 0
 246 0072 FFF7FEFF 		bl	turnLeft
 247              	.LVL13:
 112:main.c        ****             
 113:main.c        ****         }
 114:main.c        ****         break;
 248              		.loc 1 114 0
 249 0076 08BD     		pop	{r3, pc}
 250              	.L20:
 115:main.c        ****           break;
 116:main.c        ****         case 'v' :
 117:main.c        ****         {
 118:main.c        ****             turnRight();
 251              		.loc 1 118 0
 252 0078 FFF7FEFF 		bl	turnRight
 253              	.LVL14:
 119:main.c        ****             
 120:main.c        ****         }
 121:main.c        ****         break;
 254              		.loc 1 121 0
 255 007c 08BD     		pop	{r3, pc}
 256              	.L19:
 122:main.c        ****         case 't' :
 123:main.c        ****         {
 124:main.c        ****             if(ADC_SAR_V_IsEndConversion(ADC_SAR_V_WAIT_FOR_RESULT))
 257              		.loc 1 124 0
 258 007e 0020     		movs	r0, #0
 259 0080 FFF7FEFF 		bl	ADC_SAR_V_IsEndConversion
 260              	.LVL15:
 261 0084 18B1     		cbz	r0, .L11
 262              	.LVL16:
 263              	.LBB2:
 125:main.c        ****             {
 126:main.c        ****             int16_t offset = 0;
 127:main.c        ****             offset = ADC_SAR_V_GetResult16();
 264              		.loc 1 127 0
 265 0086 FFF7FEFF 		bl	ADC_SAR_V_GetResult16
 266              	.LVL17:
 128:main.c        ****             ADC_SAR_V_SetOffset(offset);
 267              		.loc 1 128 0
 268 008a FFF7FEFF 		bl	ADC_SAR_V_SetOffset
 269              	.LVL18:
 270              	.L11:
 271 008e 08BD     		pop	{r3, pc}
ARM GAS  C:\Users\LARSHO~1\AppData\Local\Temp\ccXj1XmK.s 			page 8


 272              	.LBE2:
 273              		.cfi_endproc
 274              	.LFE67:
 275              		.size	handleByteReceived, .-handleByteReceived
 276              		.section	.text.ISR_UART_rx_handler,"ax",%progbits
 277              		.align	2
 278              		.global	ISR_UART_rx_handler
 279              		.thumb
 280              		.thumb_func
 281              		.type	ISR_UART_rx_handler, %function
 282              	ISR_UART_rx_handler:
 283              	.LFB66:
  65:main.c        **** 	//Read char from RX buffer and react
 284              		.loc 1 65 0
 285              		.cfi_startproc
 286              		@ args = 0, pretend = 0, frame = 0
 287              		@ frame_needed = 0, uses_anonymous_args = 0
 288 0000 38B5     		push	{r3, r4, r5, lr}
 289              		.cfi_def_cfa_offset 16
 290              		.cfi_offset 3, -16
 291              		.cfi_offset 4, -12
 292              		.cfi_offset 5, -8
 293              		.cfi_offset 14, -4
  67:main.c        ****     while (bytesToRead > 0)
 294              		.loc 1 67 0
 295 0002 FFF7FEFF 		bl	UART_1_GetRxBufferSize
 296              	.LVL19:
 297 0006 0446     		mov	r4, r0
 298              	.LVL20:
  68:main.c        ****     {
 299              		.loc 1 68 0
 300 0008 09E0     		b	.L24
 301              	.L25:
 302              	.LBB3:
  70:main.c        ****         UART_1_WriteTxData(byteReceived); // echo back
 303              		.loc 1 70 0
 304 000a FFF7FEFF 		bl	UART_1_ReadRxData
 305              	.LVL21:
 306 000e 0546     		mov	r5, r0
 307              	.LVL22:
  71:main.c        ****         
 308              		.loc 1 71 0
 309 0010 FFF7FEFF 		bl	UART_1_WriteTxData
 310              	.LVL23:
  73:main.c        ****         
 311              		.loc 1 73 0
 312 0014 2846     		mov	r0, r5
 313 0016 FFF7FEFF 		bl	handleByteReceived
 314              	.LVL24:
  75:main.c        ****     }
 315              		.loc 1 75 0
 316 001a 013C     		subs	r4, r4, #1
 317              	.LVL25:
 318 001c E4B2     		uxtb	r4, r4
 319              	.LVL26:
 320              	.L24:
 321              	.LBE3:
ARM GAS  C:\Users\LARSHO~1\AppData\Local\Temp\ccXj1XmK.s 			page 9


  68:main.c        ****     {
 322              		.loc 1 68 0
 323 001e 002C     		cmp	r4, #0
 324 0020 F3D1     		bne	.L25
  77:main.c        **** void handleByteReceived(uint8_t byteReceived)
 325              		.loc 1 77 0
 326 0022 38BD     		pop	{r3, r4, r5, pc}
 327              		.cfi_endproc
 328              	.LFE66:
 329              		.size	ISR_UART_rx_handler, .-ISR_UART_rx_handler
 330              		.section	.text.main,"ax",%progbits
 331              		.align	2
 332              		.global	main
 333              		.thumb
 334              		.thumb_func
 335              		.type	main, %function
 336              	main:
 337              	.LFB68:
 129:main.c        ****             }
 130:main.c        ****         }
 131:main.c        ****         default :
 132:main.c        ****         {
 133:main.c        ****             // nothing
 134:main.c        ****         }
 135:main.c        ****         break;
 136:main.c        ****     }
 137:main.c        **** }
 138:main.c        **** 
 139:main.c        **** 
 140:main.c        **** int main(void)
 141:main.c        **** {
 338              		.loc 1 141 0
 339              		.cfi_startproc
 340              		@ Volatile: function does not return.
 341              		@ args = 0, pretend = 0, frame = 0
 342              		@ frame_needed = 0, uses_anonymous_args = 0
 343 0000 08B5     		push	{r3, lr}
 344              		.cfi_def_cfa_offset 8
 345              		.cfi_offset 3, -8
 346              		.cfi_offset 14, -4
 142:main.c        ****     CyGlobalIntEnable; /* Enable global interrupts. */
 347              		.loc 1 142 0
 348              		.syntax unified
 349              	@ 142 "main.c" 1
 350 0002 62B6     		CPSIE   i
 351              	@ 0 "" 2
 143:main.c        ****     /* Place your initialization/startup code here (e.g. MyInst_Start()) */
 144:main.c        ****     isr_uart_rx_StartEx(ISR_UART_rx_handler);
 352              		.loc 1 144 0
 353              		.thumb
 354              		.syntax unified
 355 0004 2D48     		ldr	r0, .L32
 356 0006 FFF7FEFF 		bl	isr_uart_rx_StartEx
 357              	.LVL27:
 145:main.c        ****     isr_1_StartEx(sensor_ISR);
 358              		.loc 1 145 0
 359 000a 2D48     		ldr	r0, .L32+4
ARM GAS  C:\Users\LARSHO~1\AppData\Local\Temp\ccXj1XmK.s 			page 10


 360 000c FFF7FEFF 		bl	isr_1_StartEx
 361              	.LVL28:
 146:main.c        ****     ISR_SPI_StartEx(ISR_SPI);
 362              		.loc 1 146 0
 363 0010 2C48     		ldr	r0, .L32+8
 364 0012 FFF7FEFF 		bl	ISR_SPI_StartEx
 365              	.LVL29:
 147:main.c        ****     UART_1_Start();
 366              		.loc 1 147 0
 367 0016 FFF7FEFF 		bl	UART_1_Start
 368              	.LVL30:
 148:main.c        ****     SPI_Slave_Start();
 369              		.loc 1 148 0
 370 001a FFF7FEFF 		bl	SPI_Slave_Start
 371              	.LVL31:
 149:main.c        ****     ADC_SAR_V_Start();
 372              		.loc 1 149 0
 373 001e FFF7FEFF 		bl	ADC_SAR_V_Start
 374              	.LVL32:
 150:main.c        ****     ADC_SAR_V_StartConvert();
 375              		.loc 1 150 0
 376 0022 FFF7FEFF 		bl	ADC_SAR_V_StartConvert
 377              	.LVL33:
 151:main.c        ****     ADC_SAR_B_Start();
 378              		.loc 1 151 0
 379 0026 FFF7FEFF 		bl	ADC_SAR_B_Start
 380              	.LVL34:
 152:main.c        ****     ADC_SAR_B_StartConvert();
 381              		.loc 1 152 0
 382 002a FFF7FEFF 		bl	ADC_SAR_B_StartConvert
 383              	.LVL35:
 153:main.c        ****     PWM_M1_Start();    //PWM Motor1 (1hjul)
 384              		.loc 1 153 0
 385 002e FFF7FEFF 		bl	PWM_M1_Start
 386              	.LVL36:
 154:main.c        ****     PWM_M2_Start();    //PWM Motor1 (1hjul)
 387              		.loc 1 154 0
 388 0032 FFF7FEFF 		bl	PWM_M2_Start
 389              	.LVL37:
 155:main.c        ****     PWM_M3_Start();   //PWM Motor2 (2jhul)
 390              		.loc 1 155 0
 391 0036 FFF7FEFF 		bl	PWM_M3_Start
 392              	.LVL38:
 156:main.c        ****     PWM_M4_Start();   //PWM Motor2 (2hjul)
 393              		.loc 1 156 0
 394 003a FFF7FEFF 		bl	PWM_M4_Start
 395              	.LVL39:
 157:main.c        ****     PWM_P_Start();
 396              		.loc 1 157 0
 397 003e FFF7FEFF 		bl	PWM_P_Start
 398              	.LVL40:
 158:main.c        ****     
 159:main.c        ****   
 160:main.c        ****     
 161:main.c        ****     
 162:main.c        ****     
 163:main.c        ****     UART_1_PutString("DC-Motor-PWM application started\r\n");
ARM GAS  C:\Users\LARSHO~1\AppData\Local\Temp\ccXj1XmK.s 			page 11


 399              		.loc 1 163 0
 400 0042 2148     		ldr	r0, .L32+12
 401 0044 FFF7FEFF 		bl	UART_1_PutString
 402              	.LVL41:
 164:main.c        ****     UART_1_PutString("0: Stop\r\n");
 403              		.loc 1 164 0
 404 0048 2048     		ldr	r0, .L32+16
 405 004a FFF7FEFF 		bl	UART_1_PutString
 406              	.LVL42:
 165:main.c        ****     UART_1_PutString("1: Drive forwards\r\n");
 407              		.loc 1 165 0
 408 004e 2048     		ldr	r0, .L32+20
 409 0050 FFF7FEFF 		bl	UART_1_PutString
 410              	.LVL43:
 166:main.c        ****     UART_1_PutString("2: Drive backwards\r\n");
 411              		.loc 1 166 0
 412 0054 1F48     		ldr	r0, .L32+24
 413 0056 FFF7FEFF 		bl	UART_1_PutString
 414              	.LVL44:
 167:main.c        ****     UART_1_PutString("q: Decrease speed\r\n");
 415              		.loc 1 167 0
 416 005a 1F48     		ldr	r0, .L32+28
 417 005c FFF7FEFF 		bl	UART_1_PutString
 418              	.LVL45:
 168:main.c        ****     UART_1_PutString("w: Increase speed\r\n");
 419              		.loc 1 168 0
 420 0060 1E48     		ldr	r0, .L32+32
 421 0062 FFF7FEFF 		bl	UART_1_PutString
 422              	.LVL46:
 169:main.c        ****     PWM_P_WriteCompare(80);
 423              		.loc 1 169 0
 424 0066 5020     		movs	r0, #80
 425 0068 FFF7FEFF 		bl	PWM_P_WriteCompare
 426              	.LVL47:
 170:main.c        ****     PWM_M1_WriteCompare(100);
 427              		.loc 1 170 0
 428 006c 6420     		movs	r0, #100
 429 006e FFF7FEFF 		bl	PWM_M1_WriteCompare
 430              	.LVL48:
 171:main.c        ****     PWM_M3_WriteCompare(100);
 431              		.loc 1 171 0
 432 0072 6420     		movs	r0, #100
 433 0074 FFF7FEFF 		bl	PWM_M3_WriteCompare
 434              	.LVL49:
 435              	.L30:
 172:main.c        ****     
 173:main.c        ****     for(;;)
 174:main.c        ****     {
 175:main.c        ****         //CyDelay(500);
 176:main.c        ****        
 177:main.c        ****         UART_1_PutString("Broomba run\r\n");
 436              		.loc 1 177 0
 437 0078 1948     		ldr	r0, .L32+36
 438 007a FFF7FEFF 		bl	UART_1_PutString
 439              	.LVL50:
 178:main.c        ****         if(sensorPushed == LEFT)
 440              		.loc 1 178 0
ARM GAS  C:\Users\LARSHO~1\AppData\Local\Temp\ccXj1XmK.s 			page 12


 441 007e 194B     		ldr	r3, .L32+40
 442 0080 DB78     		ldrb	r3, [r3, #3]	@ zero_extendqisi2
 443 0082 012B     		cmp	r3, #1
 444 0084 05D1     		bne	.L28
 179:main.c        ****         {
 180:main.c        ****             turnLeft();
 445              		.loc 1 180 0
 446 0086 FFF7FEFF 		bl	turnLeft
 447              	.LVL51:
 181:main.c        ****             sensor = 0;
 448              		.loc 1 181 0
 449 008a 0022     		movs	r2, #0
 450 008c 154B     		ldr	r3, .L32+40
 451 008e 9A70     		strb	r2, [r3, #2]
 452 0090 06E0     		b	.L29
 453              	.L28:
 182:main.c        ****         } 
 183:main.c        ****         else if(sensorPushed == RIGHT)
 454              		.loc 1 183 0
 455 0092 022B     		cmp	r3, #2
 456 0094 04D1     		bne	.L29
 184:main.c        ****         {
 185:main.c        ****            turnRight();
 457              		.loc 1 185 0
 458 0096 FFF7FEFF 		bl	turnRight
 459              	.LVL52:
 186:main.c        ****             sensor = 0;
 460              		.loc 1 186 0
 461 009a 0022     		movs	r2, #0
 462 009c 114B     		ldr	r3, .L32+40
 463 009e 9A70     		strb	r2, [r3, #2]
 464              	.L29:
 187:main.c        ****         }
 188:main.c        ****         Pin_1_ClearInterrupt();
 465              		.loc 1 188 0
 466 00a0 FFF7FEFF 		bl	Pin_1_ClearInterrupt
 467              	.LVL53:
 189:main.c        ****         isr_1_ClearPending();
 468              		.loc 1 189 0
 469 00a4 FFF7FEFF 		bl	isr_1_ClearPending
 470              	.LVL54:
 190:main.c        ****         sensorPushed = 0;
 471              		.loc 1 190 0
 472 00a8 0022     		movs	r2, #0
 473 00aa 0E4B     		ldr	r3, .L32+40
 474 00ac DA70     		strb	r2, [r3, #3]
 191:main.c        ****         CyDelay(2000);
 475              		.loc 1 191 0
 476 00ae 4FF4FA60 		mov	r0, #2000
 477 00b2 FFF7FEFF 		bl	CyDelay
 478              	.LVL55:
 192:main.c        ****         
 193:main.c        ****         checkBattery();
 479              		.loc 1 193 0
 480 00b6 FFF7FEFF 		bl	checkBattery
 481              	.LVL56:
 194:main.c        ****         //checkLoad();
ARM GAS  C:\Users\LARSHO~1\AppData\Local\Temp\ccXj1XmK.s 			page 13


 195:main.c        ****     }
 482              		.loc 1 195 0
 483 00ba DDE7     		b	.L30
 484              	.L33:
 485              		.align	2
 486              	.L32:
 487 00bc 00000000 		.word	ISR_UART_rx_handler
 488 00c0 00000000 		.word	sensor_ISR
 489 00c4 00000000 		.word	ISR_SPI
 490 00c8 18000000 		.word	.LC1
 491 00cc 3C000000 		.word	.LC2
 492 00d0 48000000 		.word	.LC3
 493 00d4 5C000000 		.word	.LC4
 494 00d8 74000000 		.word	.LC5
 495 00dc 88000000 		.word	.LC6
 496 00e0 9C000000 		.word	.LC7
 497 00e4 00000000 		.word	.LANCHOR0
 498              		.cfi_endproc
 499              	.LFE68:
 500              		.size	main, .-main
 501              		.global	intFlag
 502              		.global	received
 503              		.global	sensor
 504              		.section	.rodata.str1.4,"aMS",%progbits,1
 505              		.align	2
 506              	.LC0:
 507 0000 466C6167 		.ascii	"Flag bliver sat. Pin1\015\012\000"
 507      20626C69 
 507      76657220 
 507      7361742E 
 507      2050696E 
 508              	.LC1:
 509 0018 44432D4D 		.ascii	"DC-Motor-PWM application started\015\012\000"
 509      6F746F72 
 509      2D50574D 
 509      20617070 
 509      6C696361 
 510 003b 00       		.space	1
 511              	.LC2:
 512 003c 303A2053 		.ascii	"0: Stop\015\012\000"
 512      746F700D 
 512      0A00
 513 0046 0000     		.space	2
 514              	.LC3:
 515 0048 313A2044 		.ascii	"1: Drive forwards\015\012\000"
 515      72697665 
 515      20666F72 
 515      77617264 
 515      730D0A00 
 516              	.LC4:
 517 005c 323A2044 		.ascii	"2: Drive backwards\015\012\000"
 517      72697665 
 517      20626163 
 517      6B776172 
 517      64730D0A 
 518 0071 000000   		.space	3
 519              	.LC5:
ARM GAS  C:\Users\LARSHO~1\AppData\Local\Temp\ccXj1XmK.s 			page 14


 520 0074 713A2044 		.ascii	"q: Decrease speed\015\012\000"
 520      65637265 
 520      61736520 
 520      73706565 
 520      640D0A00 
 521              	.LC6:
 522 0088 773A2049 		.ascii	"w: Increase speed\015\012\000"
 522      6E637265 
 522      61736520 
 522      73706565 
 522      640D0A00 
 523              	.LC7:
 524 009c 42726F6F 		.ascii	"Broomba run\015\012\000"
 524      6D626120 
 524      72756E0D 
 524      0A00
 525              		.bss
 526              		.set	.LANCHOR0,. + 0
 527              		.type	received, %object
 528              		.size	received, 1
 529              	received:
 530 0000 00       		.space	1
 531              		.type	intFlag, %object
 532              		.size	intFlag, 1
 533              	intFlag:
 534 0001 00       		.space	1
 535              		.type	sensor, %object
 536              		.size	sensor, 1
 537              	sensor:
 538 0002 00       		.space	1
 539              		.type	sensorPushed, %object
 540              		.size	sensorPushed, 1
 541              	sensorPushed:
 542 0003 00       		.space	1
 543              		.text
 544              	.Letext0:
 545              		.file 2 "c:\\program files (x86)\\cypress\\psoc creator\\4.1\\psoc creator\\import\\gnu\\arm\\5.4.
 546              		.file 3 "c:\\program files (x86)\\cypress\\psoc creator\\4.1\\psoc creator\\import\\gnu\\arm\\5.4.
 547              		.file 4 "Generated_Source\\PSoC5/cytypes.h"
 548              		.file 5 "Generated_Source\\PSoC5/core_cm3.h"
 549              		.file 6 "Generated_Source\\PSoC5/SPI_Slave.h"
 550              		.file 7 "Generated_Source\\PSoC5/Pin_1.h"
 551              		.file 8 "Generated_Source\\PSoC5/UART_1.h"
 552              		.file 9 "Generated_Source\\PSoC5/ADC_SAR_V.h"
 553              		.file 10 "Motor.h"
 554              		.file 11 "Generated_Source\\PSoC5/isr_uart_rx.h"
 555              		.file 12 "Generated_Source\\PSoC5/isr_1.h"
 556              		.file 13 "Generated_Source\\PSoC5/ISR_SPI.h"
 557              		.file 14 "Generated_Source\\PSoC5/ADC_SAR_B.h"
 558              		.file 15 "Generated_Source\\PSoC5/PWM_M1.h"
 559              		.file 16 "Generated_Source\\PSoC5/PWM_M2.h"
 560              		.file 17 "Generated_Source\\PSoC5/PWM_M3.h"
 561              		.file 18 "Generated_Source\\PSoC5/PWM_M4.h"
 562              		.file 19 "Generated_Source\\PSoC5/PWM_P.h"
 563              		.file 20 "Generated_Source\\PSoC5/CyLib.h"
 564              		.file 21 "BatterySensor.h"