ARM GAS  C:\Users\LARSHO~1\AppData\Local\Temp\ccO9gOSk.s 			page 1


   1              		.syntax unified
   2              		.cpu cortex-m3
   3              		.fpu softvfp
   4              		.eabi_attribute 20, 1
   5              		.eabi_attribute 21, 1
   6              		.eabi_attribute 23, 3
   7              		.eabi_attribute 24, 1
   8              		.eabi_attribute 25, 1
   9              		.eabi_attribute 26, 1
  10              		.eabi_attribute 30, 1
  11              		.eabi_attribute 34, 1
  12              		.eabi_attribute 18, 4
  13              		.thumb
  14              		.syntax unified
  15              		.file	"SPI_Slave.c"
  16              		.text
  17              	.Ltext0:
  18              		.cfi_sections	.debug_frame
  19              		.section	.text.SPI_Slave_Enable,"ax",%progbits
  20              		.align	2
  21              		.global	SPI_Slave_Enable
  22              		.thumb
  23              		.thumb_func
  24              		.type	SPI_Slave_Enable, %function
  25              	SPI_Slave_Enable:
  26              	.LFB1:
  27              		.file 1 "Generated_Source\\PSoC5\\SPI_Slave.c"
   1:Generated_Source\PSoC5/SPI_Slave.c **** /*******************************************************************************
   2:Generated_Source\PSoC5/SPI_Slave.c **** * File Name: SPI_Slave.c
   3:Generated_Source\PSoC5/SPI_Slave.c **** * Version 2.70
   4:Generated_Source\PSoC5/SPI_Slave.c **** *
   5:Generated_Source\PSoC5/SPI_Slave.c **** * Description:
   6:Generated_Source\PSoC5/SPI_Slave.c **** *  This file provides all API functionality of the SPI Slave component.
   7:Generated_Source\PSoC5/SPI_Slave.c **** *
   8:Generated_Source\PSoC5/SPI_Slave.c **** * Note:
   9:Generated_Source\PSoC5/SPI_Slave.c **** *  None.
  10:Generated_Source\PSoC5/SPI_Slave.c **** *
  11:Generated_Source\PSoC5/SPI_Slave.c **** ********************************************************************************
  12:Generated_Source\PSoC5/SPI_Slave.c **** * Copyright 2008-2015, Cypress Semiconductor Corporation.  All rights reserved.
  13:Generated_Source\PSoC5/SPI_Slave.c **** * You may use this file only in accordance with the license, terms, conditions,
  14:Generated_Source\PSoC5/SPI_Slave.c **** * disclaimers, and limitations in the end user license agreement accompanying
  15:Generated_Source\PSoC5/SPI_Slave.c **** * the software package with which this file was provided.
  16:Generated_Source\PSoC5/SPI_Slave.c **** *******************************************************************************/
  17:Generated_Source\PSoC5/SPI_Slave.c **** 
  18:Generated_Source\PSoC5/SPI_Slave.c **** #include "SPI_Slave_PVT.h"
  19:Generated_Source\PSoC5/SPI_Slave.c **** 
  20:Generated_Source\PSoC5/SPI_Slave.c **** #if (SPI_Slave_TX_SOFTWARE_BUF_ENABLED)
  21:Generated_Source\PSoC5/SPI_Slave.c **** 
  22:Generated_Source\PSoC5/SPI_Slave.c ****     volatile uint8 SPI_Slave_txBuffer[SPI_Slave_TX_BUFFER_SIZE];
  23:Generated_Source\PSoC5/SPI_Slave.c ****     volatile uint8 SPI_Slave_txBufferRead;
  24:Generated_Source\PSoC5/SPI_Slave.c ****     volatile uint8 SPI_Slave_txBufferWrite;
  25:Generated_Source\PSoC5/SPI_Slave.c ****     volatile uint8 SPI_Slave_txBufferFull;
  26:Generated_Source\PSoC5/SPI_Slave.c **** 
  27:Generated_Source\PSoC5/SPI_Slave.c **** #endif /* SPI_Slave_TX_SOFTWARE_BUF_ENABLED*/
  28:Generated_Source\PSoC5/SPI_Slave.c **** 
  29:Generated_Source\PSoC5/SPI_Slave.c **** #if (SPI_Slave_RX_SOFTWARE_BUF_ENABLED)
  30:Generated_Source\PSoC5/SPI_Slave.c **** 
ARM GAS  C:\Users\LARSHO~1\AppData\Local\Temp\ccO9gOSk.s 			page 2


  31:Generated_Source\PSoC5/SPI_Slave.c ****     volatile uint8 SPI_Slave_rxBuffer[SPI_Slave_RX_BUFFER_SIZE];
  32:Generated_Source\PSoC5/SPI_Slave.c ****     volatile uint8 SPI_Slave_rxBufferRead;
  33:Generated_Source\PSoC5/SPI_Slave.c ****     volatile uint8 SPI_Slave_rxBufferWrite;
  34:Generated_Source\PSoC5/SPI_Slave.c ****     volatile uint8 SPI_Slave_rxBufferFull;
  35:Generated_Source\PSoC5/SPI_Slave.c **** 
  36:Generated_Source\PSoC5/SPI_Slave.c **** #endif /* SPI_Slave_RX_SOFTWARE_BUF_ENABLED */
  37:Generated_Source\PSoC5/SPI_Slave.c **** 
  38:Generated_Source\PSoC5/SPI_Slave.c **** uint8 SPI_Slave_initVar = 0u;
  39:Generated_Source\PSoC5/SPI_Slave.c **** 
  40:Generated_Source\PSoC5/SPI_Slave.c **** volatile uint8 SPI_Slave_swStatusTx;
  41:Generated_Source\PSoC5/SPI_Slave.c **** volatile uint8 SPI_Slave_swStatusRx;
  42:Generated_Source\PSoC5/SPI_Slave.c **** 
  43:Generated_Source\PSoC5/SPI_Slave.c **** 
  44:Generated_Source\PSoC5/SPI_Slave.c **** /*******************************************************************************
  45:Generated_Source\PSoC5/SPI_Slave.c **** * Function Name: SPI_Slave_Init
  46:Generated_Source\PSoC5/SPI_Slave.c **** ********************************************************************************
  47:Generated_Source\PSoC5/SPI_Slave.c **** *
  48:Generated_Source\PSoC5/SPI_Slave.c **** * Summary:
  49:Generated_Source\PSoC5/SPI_Slave.c **** *  Inits/Restores default SPIS configuration provided with customizer.
  50:Generated_Source\PSoC5/SPI_Slave.c **** *
  51:Generated_Source\PSoC5/SPI_Slave.c **** * Parameters:
  52:Generated_Source\PSoC5/SPI_Slave.c **** *  None.
  53:Generated_Source\PSoC5/SPI_Slave.c **** *
  54:Generated_Source\PSoC5/SPI_Slave.c **** * Return:
  55:Generated_Source\PSoC5/SPI_Slave.c **** *  None.
  56:Generated_Source\PSoC5/SPI_Slave.c **** *
  57:Generated_Source\PSoC5/SPI_Slave.c **** * Side Effects:
  58:Generated_Source\PSoC5/SPI_Slave.c **** *  When this function is called it initializes all of the necessary parameters
  59:Generated_Source\PSoC5/SPI_Slave.c **** *  for execution. i.e. setting the initial interrupt mask, configuring the
  60:Generated_Source\PSoC5/SPI_Slave.c **** *  interrupt service routine, configuring the bit-counter parameters and
  61:Generated_Source\PSoC5/SPI_Slave.c **** *  clearing the FIFO and Status Register.
  62:Generated_Source\PSoC5/SPI_Slave.c **** *
  63:Generated_Source\PSoC5/SPI_Slave.c **** * Reentrant:
  64:Generated_Source\PSoC5/SPI_Slave.c **** *  No.
  65:Generated_Source\PSoC5/SPI_Slave.c **** *
  66:Generated_Source\PSoC5/SPI_Slave.c **** *******************************************************************************/
  67:Generated_Source\PSoC5/SPI_Slave.c **** void SPI_Slave_Init(void) 
  68:Generated_Source\PSoC5/SPI_Slave.c **** {
  69:Generated_Source\PSoC5/SPI_Slave.c ****     /*Initialize the Bit counter */
  70:Generated_Source\PSoC5/SPI_Slave.c ****     SPI_Slave_COUNTER_PERIOD_REG = SPI_Slave_BITCTR_INIT;
  71:Generated_Source\PSoC5/SPI_Slave.c **** 
  72:Generated_Source\PSoC5/SPI_Slave.c ****     /* ISR initialization */
  73:Generated_Source\PSoC5/SPI_Slave.c ****     #if(SPI_Slave_INTERNAL_TX_INT_ENABLED)
  74:Generated_Source\PSoC5/SPI_Slave.c **** 
  75:Generated_Source\PSoC5/SPI_Slave.c ****         CyIntDisable(SPI_Slave_TX_ISR_NUMBER);
  76:Generated_Source\PSoC5/SPI_Slave.c **** 
  77:Generated_Source\PSoC5/SPI_Slave.c ****         /* Set the ISR to point to the SPI_Slave_isr Interrupt. */
  78:Generated_Source\PSoC5/SPI_Slave.c ****         (void)CyIntSetVector(SPI_Slave_TX_ISR_NUMBER, &SPI_Slave_TX_ISR);
  79:Generated_Source\PSoC5/SPI_Slave.c **** 
  80:Generated_Source\PSoC5/SPI_Slave.c ****         /* Set the priority. */
  81:Generated_Source\PSoC5/SPI_Slave.c ****         CyIntSetPriority(SPI_Slave_TX_ISR_NUMBER, SPI_Slave_TX_ISR_PRIORITY);
  82:Generated_Source\PSoC5/SPI_Slave.c **** 
  83:Generated_Source\PSoC5/SPI_Slave.c ****     #endif /* SPI_Slave_INTERNAL_TX_INT_ENABLED */
  84:Generated_Source\PSoC5/SPI_Slave.c **** 
  85:Generated_Source\PSoC5/SPI_Slave.c ****     #if(SPI_Slave_INTERNAL_RX_INT_ENABLED)
  86:Generated_Source\PSoC5/SPI_Slave.c **** 
  87:Generated_Source\PSoC5/SPI_Slave.c ****         CyIntDisable(SPI_Slave_RX_ISR_NUMBER);
ARM GAS  C:\Users\LARSHO~1\AppData\Local\Temp\ccO9gOSk.s 			page 3


  88:Generated_Source\PSoC5/SPI_Slave.c **** 
  89:Generated_Source\PSoC5/SPI_Slave.c ****         /* Set the ISR to point to the SPI_Slave_isr Interrupt. */
  90:Generated_Source\PSoC5/SPI_Slave.c ****         (void)CyIntSetVector(SPI_Slave_RX_ISR_NUMBER, &SPI_Slave_RX_ISR);
  91:Generated_Source\PSoC5/SPI_Slave.c **** 
  92:Generated_Source\PSoC5/SPI_Slave.c ****         /* Set the priority. */
  93:Generated_Source\PSoC5/SPI_Slave.c ****         CyIntSetPriority(SPI_Slave_RX_ISR_NUMBER, SPI_Slave_RX_ISR_PRIORITY);
  94:Generated_Source\PSoC5/SPI_Slave.c **** 
  95:Generated_Source\PSoC5/SPI_Slave.c ****     #endif /* SPI_Slave_INTERNAL_RX_INT_ENABLED */
  96:Generated_Source\PSoC5/SPI_Slave.c **** 
  97:Generated_Source\PSoC5/SPI_Slave.c ****     /* Clear any stray data from the RX and TX FIFO */
  98:Generated_Source\PSoC5/SPI_Slave.c ****     SPI_Slave_ClearFIFO();
  99:Generated_Source\PSoC5/SPI_Slave.c **** 
 100:Generated_Source\PSoC5/SPI_Slave.c ****     #if(SPI_Slave_RX_SOFTWARE_BUF_ENABLED)
 101:Generated_Source\PSoC5/SPI_Slave.c ****         SPI_Slave_rxBufferFull = 0u;
 102:Generated_Source\PSoC5/SPI_Slave.c ****         SPI_Slave_rxBufferRead = 0u;
 103:Generated_Source\PSoC5/SPI_Slave.c ****         SPI_Slave_rxBufferWrite = 0u;
 104:Generated_Source\PSoC5/SPI_Slave.c ****     #endif /* SPI_Slave_RX_SOFTWARE_BUF_ENABLED */
 105:Generated_Source\PSoC5/SPI_Slave.c **** 
 106:Generated_Source\PSoC5/SPI_Slave.c ****     #if(SPI_Slave_TX_SOFTWARE_BUF_ENABLED)
 107:Generated_Source\PSoC5/SPI_Slave.c ****         SPI_Slave_txBufferFull = 0u;
 108:Generated_Source\PSoC5/SPI_Slave.c ****         SPI_Slave_txBufferRead = 0u;
 109:Generated_Source\PSoC5/SPI_Slave.c ****         SPI_Slave_txBufferWrite = 0u;
 110:Generated_Source\PSoC5/SPI_Slave.c ****     #endif /* SPI_Slave_TX_SOFTWARE_BUF_ENABLED */
 111:Generated_Source\PSoC5/SPI_Slave.c **** 
 112:Generated_Source\PSoC5/SPI_Slave.c ****     (void) SPI_Slave_ReadTxStatus(); /* Clear any pending status bits */
 113:Generated_Source\PSoC5/SPI_Slave.c ****     (void) SPI_Slave_ReadRxStatus(); /* Clear any pending status bits */
 114:Generated_Source\PSoC5/SPI_Slave.c **** 
 115:Generated_Source\PSoC5/SPI_Slave.c **** 
 116:Generated_Source\PSoC5/SPI_Slave.c ****     /* Configure the Initial interrupt mask */
 117:Generated_Source\PSoC5/SPI_Slave.c ****     #if (SPI_Slave_TX_SOFTWARE_BUF_ENABLED)
 118:Generated_Source\PSoC5/SPI_Slave.c ****         SPI_Slave_TX_STATUS_MASK_REG  = (SPI_Slave_TX_INIT_INTERRUPTS_MASK &
 119:Generated_Source\PSoC5/SPI_Slave.c ****                                                 (uint8)~SPI_Slave_STS_TX_FIFO_NOT_FULL);
 120:Generated_Source\PSoC5/SPI_Slave.c ****     #else /* SPI_Slave_TX_SOFTWARE_BUF_ENABLED */
 121:Generated_Source\PSoC5/SPI_Slave.c ****         SPI_Slave_TX_STATUS_MASK_REG  = SPI_Slave_TX_INIT_INTERRUPTS_MASK;
 122:Generated_Source\PSoC5/SPI_Slave.c ****     #endif /* SPI_Slave_TX_SOFTWARE_BUF_ENABLED */
 123:Generated_Source\PSoC5/SPI_Slave.c **** 
 124:Generated_Source\PSoC5/SPI_Slave.c ****     SPI_Slave_RX_STATUS_MASK_REG  = SPI_Slave_RX_INIT_INTERRUPTS_MASK;
 125:Generated_Source\PSoC5/SPI_Slave.c **** }
 126:Generated_Source\PSoC5/SPI_Slave.c **** 
 127:Generated_Source\PSoC5/SPI_Slave.c **** 
 128:Generated_Source\PSoC5/SPI_Slave.c **** /*******************************************************************************
 129:Generated_Source\PSoC5/SPI_Slave.c **** * Function Name: SPI_Slave_Enable
 130:Generated_Source\PSoC5/SPI_Slave.c **** ********************************************************************************
 131:Generated_Source\PSoC5/SPI_Slave.c **** *
 132:Generated_Source\PSoC5/SPI_Slave.c **** * Summary:
 133:Generated_Source\PSoC5/SPI_Slave.c **** *  Enable SPIS component.
 134:Generated_Source\PSoC5/SPI_Slave.c **** *
 135:Generated_Source\PSoC5/SPI_Slave.c **** * Parameters:
 136:Generated_Source\PSoC5/SPI_Slave.c **** *  None.
 137:Generated_Source\PSoC5/SPI_Slave.c **** *
 138:Generated_Source\PSoC5/SPI_Slave.c **** * Return:
 139:Generated_Source\PSoC5/SPI_Slave.c **** *  None.
 140:Generated_Source\PSoC5/SPI_Slave.c **** *
 141:Generated_Source\PSoC5/SPI_Slave.c **** *******************************************************************************/
 142:Generated_Source\PSoC5/SPI_Slave.c **** void SPI_Slave_Enable(void) 
 143:Generated_Source\PSoC5/SPI_Slave.c **** {
  28              		.loc 1 143 0
ARM GAS  C:\Users\LARSHO~1\AppData\Local\Temp\ccO9gOSk.s 			page 4


  29              		.cfi_startproc
  30              		@ args = 0, pretend = 0, frame = 0
  31              		@ frame_needed = 0, uses_anonymous_args = 0
  32 0000 08B5     		push	{r3, lr}
  33              		.cfi_def_cfa_offset 8
  34              		.cfi_offset 3, -8
  35              		.cfi_offset 14, -4
 144:Generated_Source\PSoC5/SPI_Slave.c ****     uint8 enableInterrupts;
 145:Generated_Source\PSoC5/SPI_Slave.c ****     enableInterrupts = CyEnterCriticalSection();
  36              		.loc 1 145 0
  37 0002 FFF7FEFF 		bl	CyEnterCriticalSection
  38              	.LVL0:
 146:Generated_Source\PSoC5/SPI_Slave.c **** 
 147:Generated_Source\PSoC5/SPI_Slave.c ****     SPI_Slave_COUNTER_CONTROL_REG |= SPI_Slave_CNTR_ENABLE;
  39              		.loc 1 147 0
  40 0006 0B4A     		ldr	r2, .L3
  41 0008 1378     		ldrb	r3, [r2]	@ zero_extendqisi2
  42 000a 43F02003 		orr	r3, r3, #32
  43 000e 1370     		strb	r3, [r2]
 148:Generated_Source\PSoC5/SPI_Slave.c ****     SPI_Slave_TX_STATUS_ACTL_REG |= SPI_Slave_INT_ENABLE;
  44              		.loc 1 148 0
  45 0010 A2F58072 		sub	r2, r2, #256
  46 0014 1378     		ldrb	r3, [r2]	@ zero_extendqisi2
  47 0016 43F01003 		orr	r3, r3, #16
  48 001a 1370     		strb	r3, [r2]
 149:Generated_Source\PSoC5/SPI_Slave.c ****     SPI_Slave_RX_STATUS_ACTL_REG |= SPI_Slave_INT_ENABLE;
  49              		.loc 1 149 0
  50 001c 02F58172 		add	r2, r2, #258
  51 0020 1378     		ldrb	r3, [r2]	@ zero_extendqisi2
  52 0022 43F01003 		orr	r3, r3, #16
  53 0026 1370     		strb	r3, [r2]
 150:Generated_Source\PSoC5/SPI_Slave.c **** 
 151:Generated_Source\PSoC5/SPI_Slave.c ****     CyExitCriticalSection(enableInterrupts);
  54              		.loc 1 151 0
  55 0028 FFF7FEFF 		bl	CyExitCriticalSection
  56              	.LVL1:
 152:Generated_Source\PSoC5/SPI_Slave.c **** 
 153:Generated_Source\PSoC5/SPI_Slave.c ****     #if(SPI_Slave_INTERNAL_TX_INT_ENABLED)
 154:Generated_Source\PSoC5/SPI_Slave.c ****         CyIntEnable(SPI_Slave_TX_ISR_NUMBER);
 155:Generated_Source\PSoC5/SPI_Slave.c ****     #endif /* SPI_Slave_INTERNAL_TX_INT_ENABLED */
 156:Generated_Source\PSoC5/SPI_Slave.c **** 
 157:Generated_Source\PSoC5/SPI_Slave.c ****     #if(SPI_Slave_INTERNAL_RX_INT_ENABLED)
 158:Generated_Source\PSoC5/SPI_Slave.c ****         CyIntEnable(SPI_Slave_RX_ISR_NUMBER);
  57              		.loc 1 158 0
  58 002c 0822     		movs	r2, #8
  59 002e 024B     		ldr	r3, .L3+4
  60 0030 1A60     		str	r2, [r3]
  61 0032 08BD     		pop	{r3, pc}
  62              	.L4:
  63              		.align	2
  64              	.L3:
  65 0034 98650040 		.word	1073767832
  66 0038 00E100E0 		.word	-536813312
  67              		.cfi_endproc
  68              	.LFE1:
  69              		.size	SPI_Slave_Enable, .-SPI_Slave_Enable
  70              		.section	.text.SPI_Slave_Stop,"ax",%progbits
ARM GAS  C:\Users\LARSHO~1\AppData\Local\Temp\ccO9gOSk.s 			page 5


  71              		.align	2
  72              		.global	SPI_Slave_Stop
  73              		.thumb
  74              		.thumb_func
  75              		.type	SPI_Slave_Stop, %function
  76              	SPI_Slave_Stop:
  77              	.LFB3:
 159:Generated_Source\PSoC5/SPI_Slave.c ****     #endif /* SPI_Slave_INTERNAL_RX_INT_ENABLED */
 160:Generated_Source\PSoC5/SPI_Slave.c **** }
 161:Generated_Source\PSoC5/SPI_Slave.c **** 
 162:Generated_Source\PSoC5/SPI_Slave.c **** 
 163:Generated_Source\PSoC5/SPI_Slave.c **** /*******************************************************************************
 164:Generated_Source\PSoC5/SPI_Slave.c **** * Function Name: SPI_Slave_Start
 165:Generated_Source\PSoC5/SPI_Slave.c **** ********************************************************************************
 166:Generated_Source\PSoC5/SPI_Slave.c **** *
 167:Generated_Source\PSoC5/SPI_Slave.c **** * Summary:
 168:Generated_Source\PSoC5/SPI_Slave.c **** *  Initialize and Enable the SPI Slave component.
 169:Generated_Source\PSoC5/SPI_Slave.c **** *
 170:Generated_Source\PSoC5/SPI_Slave.c **** * Parameters:
 171:Generated_Source\PSoC5/SPI_Slave.c **** *  None.
 172:Generated_Source\PSoC5/SPI_Slave.c **** *
 173:Generated_Source\PSoC5/SPI_Slave.c **** * Return:
 174:Generated_Source\PSoC5/SPI_Slave.c **** *  None.
 175:Generated_Source\PSoC5/SPI_Slave.c **** *
 176:Generated_Source\PSoC5/SPI_Slave.c **** * Global variables:
 177:Generated_Source\PSoC5/SPI_Slave.c **** *  SPI_Slave_initVar - used to check initial configuration, modified on
 178:Generated_Source\PSoC5/SPI_Slave.c **** *  first function call.
 179:Generated_Source\PSoC5/SPI_Slave.c **** *
 180:Generated_Source\PSoC5/SPI_Slave.c **** * Theory:
 181:Generated_Source\PSoC5/SPI_Slave.c **** *  Enable the clock input to enable operation.
 182:Generated_Source\PSoC5/SPI_Slave.c **** *
 183:Generated_Source\PSoC5/SPI_Slave.c **** * Reentrant:
 184:Generated_Source\PSoC5/SPI_Slave.c **** *  No.
 185:Generated_Source\PSoC5/SPI_Slave.c **** *
 186:Generated_Source\PSoC5/SPI_Slave.c **** *******************************************************************************/
 187:Generated_Source\PSoC5/SPI_Slave.c **** void SPI_Slave_Start(void) 
 188:Generated_Source\PSoC5/SPI_Slave.c **** {
 189:Generated_Source\PSoC5/SPI_Slave.c ****     if(SPI_Slave_initVar == 0u)
 190:Generated_Source\PSoC5/SPI_Slave.c ****     {
 191:Generated_Source\PSoC5/SPI_Slave.c ****         SPI_Slave_Init();
 192:Generated_Source\PSoC5/SPI_Slave.c ****         SPI_Slave_initVar = 1u;
 193:Generated_Source\PSoC5/SPI_Slave.c ****     }
 194:Generated_Source\PSoC5/SPI_Slave.c **** 
 195:Generated_Source\PSoC5/SPI_Slave.c ****     SPI_Slave_Enable();
 196:Generated_Source\PSoC5/SPI_Slave.c **** }
 197:Generated_Source\PSoC5/SPI_Slave.c **** 
 198:Generated_Source\PSoC5/SPI_Slave.c **** 
 199:Generated_Source\PSoC5/SPI_Slave.c **** /*******************************************************************************
 200:Generated_Source\PSoC5/SPI_Slave.c **** * Function Name: SPI_Slave_Stop
 201:Generated_Source\PSoC5/SPI_Slave.c **** ********************************************************************************
 202:Generated_Source\PSoC5/SPI_Slave.c **** *
 203:Generated_Source\PSoC5/SPI_Slave.c **** * Summary:
 204:Generated_Source\PSoC5/SPI_Slave.c **** *  Disable the SPI Slave component.
 205:Generated_Source\PSoC5/SPI_Slave.c **** *
 206:Generated_Source\PSoC5/SPI_Slave.c **** * Parameters:
 207:Generated_Source\PSoC5/SPI_Slave.c **** *  None.
 208:Generated_Source\PSoC5/SPI_Slave.c **** *
ARM GAS  C:\Users\LARSHO~1\AppData\Local\Temp\ccO9gOSk.s 			page 6


 209:Generated_Source\PSoC5/SPI_Slave.c **** * Return:
 210:Generated_Source\PSoC5/SPI_Slave.c **** *  None.
 211:Generated_Source\PSoC5/SPI_Slave.c **** *
 212:Generated_Source\PSoC5/SPI_Slave.c **** * Theory:
 213:Generated_Source\PSoC5/SPI_Slave.c **** *  Disable the internal interrupt if one is used.
 214:Generated_Source\PSoC5/SPI_Slave.c **** *
 215:Generated_Source\PSoC5/SPI_Slave.c **** *******************************************************************************/
 216:Generated_Source\PSoC5/SPI_Slave.c **** void SPI_Slave_Stop(void) 
 217:Generated_Source\PSoC5/SPI_Slave.c **** {
  78              		.loc 1 217 0
  79              		.cfi_startproc
  80              		@ args = 0, pretend = 0, frame = 0
  81              		@ frame_needed = 0, uses_anonymous_args = 0
  82 0000 08B5     		push	{r3, lr}
  83              		.cfi_def_cfa_offset 8
  84              		.cfi_offset 3, -8
  85              		.cfi_offset 14, -4
 218:Generated_Source\PSoC5/SPI_Slave.c ****     uint8 enableInterrupts;
 219:Generated_Source\PSoC5/SPI_Slave.c ****     enableInterrupts = CyEnterCriticalSection();
  86              		.loc 1 219 0
  87 0002 FFF7FEFF 		bl	CyEnterCriticalSection
  88              	.LVL2:
 220:Generated_Source\PSoC5/SPI_Slave.c **** 
 221:Generated_Source\PSoC5/SPI_Slave.c ****     SPI_Slave_TX_STATUS_ACTL_REG &= (uint8)~SPI_Slave_INT_ENABLE;
  89              		.loc 1 221 0
  90 0006 084A     		ldr	r2, .L7
  91 0008 1378     		ldrb	r3, [r2]	@ zero_extendqisi2
  92 000a 03F0EF03 		and	r3, r3, #239
  93 000e 1370     		strb	r3, [r2]
 222:Generated_Source\PSoC5/SPI_Slave.c ****     SPI_Slave_RX_STATUS_ACTL_REG &= (uint8)~SPI_Slave_INT_ENABLE;
  94              		.loc 1 222 0
  95 0010 02F58172 		add	r2, r2, #258
  96 0014 1378     		ldrb	r3, [r2]	@ zero_extendqisi2
  97 0016 03F0EF03 		and	r3, r3, #239
  98 001a 1370     		strb	r3, [r2]
 223:Generated_Source\PSoC5/SPI_Slave.c **** 
 224:Generated_Source\PSoC5/SPI_Slave.c ****     CyExitCriticalSection(enableInterrupts);
  99              		.loc 1 224 0
 100 001c FFF7FEFF 		bl	CyExitCriticalSection
 101              	.LVL3:
 225:Generated_Source\PSoC5/SPI_Slave.c **** 
 226:Generated_Source\PSoC5/SPI_Slave.c ****     #if(SPI_Slave_INTERNAL_TX_INT_ENABLED)
 227:Generated_Source\PSoC5/SPI_Slave.c ****         CyIntDisable(SPI_Slave_TX_ISR_NUMBER);
 228:Generated_Source\PSoC5/SPI_Slave.c ****     #endif /* SPI_Slave_INTERNAL_TX_INT_ENABLED */
 229:Generated_Source\PSoC5/SPI_Slave.c **** 
 230:Generated_Source\PSoC5/SPI_Slave.c ****     #if(SPI_Slave_INTERNAL_RX_INT_ENABLED)
 231:Generated_Source\PSoC5/SPI_Slave.c ****         CyIntDisable(SPI_Slave_RX_ISR_NUMBER);
 102              		.loc 1 231 0
 103 0020 0822     		movs	r2, #8
 104 0022 024B     		ldr	r3, .L7+4
 105 0024 1A60     		str	r2, [r3]
 106 0026 08BD     		pop	{r3, pc}
 107              	.L8:
 108              		.align	2
 109              	.L7:
 110 0028 98640040 		.word	1073767576
 111 002c 80E100E0 		.word	-536813184
ARM GAS  C:\Users\LARSHO~1\AppData\Local\Temp\ccO9gOSk.s 			page 7


 112              		.cfi_endproc
 113              	.LFE3:
 114              		.size	SPI_Slave_Stop, .-SPI_Slave_Stop
 115              		.section	.text.SPI_Slave_EnableTxInt,"ax",%progbits
 116              		.align	2
 117              		.global	SPI_Slave_EnableTxInt
 118              		.thumb
 119              		.thumb_func
 120              		.type	SPI_Slave_EnableTxInt, %function
 121              	SPI_Slave_EnableTxInt:
 122              	.LFB4:
 232:Generated_Source\PSoC5/SPI_Slave.c ****     #endif /* SPI_Slave_INTERNAL_RX_INT_ENABLED */
 233:Generated_Source\PSoC5/SPI_Slave.c **** }
 234:Generated_Source\PSoC5/SPI_Slave.c **** 
 235:Generated_Source\PSoC5/SPI_Slave.c **** 
 236:Generated_Source\PSoC5/SPI_Slave.c **** /*******************************************************************************
 237:Generated_Source\PSoC5/SPI_Slave.c **** * Function Name: SPI_Slave_EnableTxInt
 238:Generated_Source\PSoC5/SPI_Slave.c **** ********************************************************************************
 239:Generated_Source\PSoC5/SPI_Slave.c **** *
 240:Generated_Source\PSoC5/SPI_Slave.c **** * Summary:
 241:Generated_Source\PSoC5/SPI_Slave.c **** *  Enable internal Tx interrupt generation.
 242:Generated_Source\PSoC5/SPI_Slave.c **** *
 243:Generated_Source\PSoC5/SPI_Slave.c **** * Parameters:
 244:Generated_Source\PSoC5/SPI_Slave.c **** *  None.
 245:Generated_Source\PSoC5/SPI_Slave.c **** *
 246:Generated_Source\PSoC5/SPI_Slave.c **** * Return:
 247:Generated_Source\PSoC5/SPI_Slave.c **** *  None.
 248:Generated_Source\PSoC5/SPI_Slave.c **** *
 249:Generated_Source\PSoC5/SPI_Slave.c **** * Theory:
 250:Generated_Source\PSoC5/SPI_Slave.c **** *  Enable the internal Tx interrupt output -or- the interrupt component itself.
 251:Generated_Source\PSoC5/SPI_Slave.c **** *
 252:Generated_Source\PSoC5/SPI_Slave.c **** *******************************************************************************/
 253:Generated_Source\PSoC5/SPI_Slave.c **** void SPI_Slave_EnableTxInt(void) 
 254:Generated_Source\PSoC5/SPI_Slave.c **** {
 123              		.loc 1 254 0
 124              		.cfi_startproc
 125              		@ args = 0, pretend = 0, frame = 0
 126              		@ frame_needed = 0, uses_anonymous_args = 0
 127              		@ link register save eliminated.
 128 0000 7047     		bx	lr
 129              		.cfi_endproc
 130              	.LFE4:
 131              		.size	SPI_Slave_EnableTxInt, .-SPI_Slave_EnableTxInt
 132 0002 00BF     		.section	.text.SPI_Slave_EnableRxInt,"ax",%progbits
 133              		.align	2
 134              		.global	SPI_Slave_EnableRxInt
 135              		.thumb
 136              		.thumb_func
 137              		.type	SPI_Slave_EnableRxInt, %function
 138              	SPI_Slave_EnableRxInt:
 139              	.LFB5:
 255:Generated_Source\PSoC5/SPI_Slave.c ****     #if(SPI_Slave_INTERNAL_TX_INT_ENABLED)
 256:Generated_Source\PSoC5/SPI_Slave.c ****         CyIntEnable(SPI_Slave_TX_ISR_NUMBER);
 257:Generated_Source\PSoC5/SPI_Slave.c ****     #endif /* SPI_Slave_INTERNAL_TX_INT_ENABLED */
 258:Generated_Source\PSoC5/SPI_Slave.c **** }
 259:Generated_Source\PSoC5/SPI_Slave.c **** 
 260:Generated_Source\PSoC5/SPI_Slave.c **** 
ARM GAS  C:\Users\LARSHO~1\AppData\Local\Temp\ccO9gOSk.s 			page 8


 261:Generated_Source\PSoC5/SPI_Slave.c **** /*******************************************************************************
 262:Generated_Source\PSoC5/SPI_Slave.c **** * Function Name: SPI_Slave_EnableRxInt
 263:Generated_Source\PSoC5/SPI_Slave.c **** ********************************************************************************
 264:Generated_Source\PSoC5/SPI_Slave.c **** *
 265:Generated_Source\PSoC5/SPI_Slave.c **** * Summary:
 266:Generated_Source\PSoC5/SPI_Slave.c **** *  Enable internal Rx interrupt generation.
 267:Generated_Source\PSoC5/SPI_Slave.c **** *
 268:Generated_Source\PSoC5/SPI_Slave.c **** * Parameters:
 269:Generated_Source\PSoC5/SPI_Slave.c **** *  None.
 270:Generated_Source\PSoC5/SPI_Slave.c **** *
 271:Generated_Source\PSoC5/SPI_Slave.c **** * Return:
 272:Generated_Source\PSoC5/SPI_Slave.c **** *  None.
 273:Generated_Source\PSoC5/SPI_Slave.c **** *
 274:Generated_Source\PSoC5/SPI_Slave.c **** * Theory:
 275:Generated_Source\PSoC5/SPI_Slave.c **** *  Enable the internal Rx interrupt output -or- the interrupt component itself.
 276:Generated_Source\PSoC5/SPI_Slave.c **** *
 277:Generated_Source\PSoC5/SPI_Slave.c **** *******************************************************************************/
 278:Generated_Source\PSoC5/SPI_Slave.c **** void SPI_Slave_EnableRxInt(void) 
 279:Generated_Source\PSoC5/SPI_Slave.c **** {
 140              		.loc 1 279 0
 141              		.cfi_startproc
 142              		@ args = 0, pretend = 0, frame = 0
 143              		@ frame_needed = 0, uses_anonymous_args = 0
 144              		@ link register save eliminated.
 280:Generated_Source\PSoC5/SPI_Slave.c ****     #if(SPI_Slave_INTERNAL_RX_INT_ENABLED)
 281:Generated_Source\PSoC5/SPI_Slave.c ****         CyIntEnable(SPI_Slave_RX_ISR_NUMBER);
 145              		.loc 1 281 0
 146 0000 0822     		movs	r2, #8
 147 0002 014B     		ldr	r3, .L11
 148 0004 1A60     		str	r2, [r3]
 149 0006 7047     		bx	lr
 150              	.L12:
 151              		.align	2
 152              	.L11:
 153 0008 00E100E0 		.word	-536813312
 154              		.cfi_endproc
 155              	.LFE5:
 156              		.size	SPI_Slave_EnableRxInt, .-SPI_Slave_EnableRxInt
 157              		.section	.text.SPI_Slave_DisableTxInt,"ax",%progbits
 158              		.align	2
 159              		.global	SPI_Slave_DisableTxInt
 160              		.thumb
 161              		.thumb_func
 162              		.type	SPI_Slave_DisableTxInt, %function
 163              	SPI_Slave_DisableTxInt:
 164              	.LFB6:
 282:Generated_Source\PSoC5/SPI_Slave.c ****     #endif /* SPI_Slave_INTERNAL_RX_INT_ENABLED */
 283:Generated_Source\PSoC5/SPI_Slave.c **** }
 284:Generated_Source\PSoC5/SPI_Slave.c **** 
 285:Generated_Source\PSoC5/SPI_Slave.c **** 
 286:Generated_Source\PSoC5/SPI_Slave.c **** /*******************************************************************************
 287:Generated_Source\PSoC5/SPI_Slave.c **** * Function Name: SPI_Slave_DisableTxInt
 288:Generated_Source\PSoC5/SPI_Slave.c **** ********************************************************************************
 289:Generated_Source\PSoC5/SPI_Slave.c **** *
 290:Generated_Source\PSoC5/SPI_Slave.c **** * Summary:
 291:Generated_Source\PSoC5/SPI_Slave.c **** *  Disable internal Tx interrupt generation.
 292:Generated_Source\PSoC5/SPI_Slave.c **** *
ARM GAS  C:\Users\LARSHO~1\AppData\Local\Temp\ccO9gOSk.s 			page 9


 293:Generated_Source\PSoC5/SPI_Slave.c **** * Parameters:
 294:Generated_Source\PSoC5/SPI_Slave.c **** *  None.
 295:Generated_Source\PSoC5/SPI_Slave.c **** *
 296:Generated_Source\PSoC5/SPI_Slave.c **** * Return:
 297:Generated_Source\PSoC5/SPI_Slave.c **** *  None.
 298:Generated_Source\PSoC5/SPI_Slave.c **** *
 299:Generated_Source\PSoC5/SPI_Slave.c **** * Theory:
 300:Generated_Source\PSoC5/SPI_Slave.c **** *  Disable the internal Tx interrupt output -or- the interrupt component itself.
 301:Generated_Source\PSoC5/SPI_Slave.c **** *
 302:Generated_Source\PSoC5/SPI_Slave.c **** *******************************************************************************/
 303:Generated_Source\PSoC5/SPI_Slave.c **** void SPI_Slave_DisableTxInt(void) 
 304:Generated_Source\PSoC5/SPI_Slave.c **** {
 165              		.loc 1 304 0
 166              		.cfi_startproc
 167              		@ args = 0, pretend = 0, frame = 0
 168              		@ frame_needed = 0, uses_anonymous_args = 0
 169              		@ link register save eliminated.
 170 0000 7047     		bx	lr
 171              		.cfi_endproc
 172              	.LFE6:
 173              		.size	SPI_Slave_DisableTxInt, .-SPI_Slave_DisableTxInt
 174 0002 00BF     		.section	.text.SPI_Slave_DisableRxInt,"ax",%progbits
 175              		.align	2
 176              		.global	SPI_Slave_DisableRxInt
 177              		.thumb
 178              		.thumb_func
 179              		.type	SPI_Slave_DisableRxInt, %function
 180              	SPI_Slave_DisableRxInt:
 181              	.LFB7:
 305:Generated_Source\PSoC5/SPI_Slave.c ****     #if(SPI_Slave_INTERNAL_TX_INT_ENABLED)
 306:Generated_Source\PSoC5/SPI_Slave.c ****         CyIntDisable(SPI_Slave_TX_ISR_NUMBER);
 307:Generated_Source\PSoC5/SPI_Slave.c ****     #endif /* SPI_Slave_INTERNAL_TX_INT_ENABLED */
 308:Generated_Source\PSoC5/SPI_Slave.c **** }
 309:Generated_Source\PSoC5/SPI_Slave.c **** 
 310:Generated_Source\PSoC5/SPI_Slave.c **** 
 311:Generated_Source\PSoC5/SPI_Slave.c **** /*******************************************************************************
 312:Generated_Source\PSoC5/SPI_Slave.c **** * Function Name: SPI_Slave_DisableRxInt
 313:Generated_Source\PSoC5/SPI_Slave.c **** ********************************************************************************
 314:Generated_Source\PSoC5/SPI_Slave.c **** *
 315:Generated_Source\PSoC5/SPI_Slave.c **** * Summary:
 316:Generated_Source\PSoC5/SPI_Slave.c **** *  Disable internal Rx interrupt generation.
 317:Generated_Source\PSoC5/SPI_Slave.c **** *
 318:Generated_Source\PSoC5/SPI_Slave.c **** * Parameters:
 319:Generated_Source\PSoC5/SPI_Slave.c **** *  None.
 320:Generated_Source\PSoC5/SPI_Slave.c **** *
 321:Generated_Source\PSoC5/SPI_Slave.c **** * Return:
 322:Generated_Source\PSoC5/SPI_Slave.c **** *  None.
 323:Generated_Source\PSoC5/SPI_Slave.c **** *
 324:Generated_Source\PSoC5/SPI_Slave.c **** * Theory:
 325:Generated_Source\PSoC5/SPI_Slave.c **** *  Disable the internal Rx interrupt output -or- the interrupt component itself.
 326:Generated_Source\PSoC5/SPI_Slave.c **** *
 327:Generated_Source\PSoC5/SPI_Slave.c **** *******************************************************************************/
 328:Generated_Source\PSoC5/SPI_Slave.c **** void SPI_Slave_DisableRxInt(void) 
 329:Generated_Source\PSoC5/SPI_Slave.c **** {
 182              		.loc 1 329 0
 183              		.cfi_startproc
 184              		@ args = 0, pretend = 0, frame = 0
ARM GAS  C:\Users\LARSHO~1\AppData\Local\Temp\ccO9gOSk.s 			page 10


 185              		@ frame_needed = 0, uses_anonymous_args = 0
 186              		@ link register save eliminated.
 330:Generated_Source\PSoC5/SPI_Slave.c ****     #if(SPI_Slave_INTERNAL_RX_INT_ENABLED)
 331:Generated_Source\PSoC5/SPI_Slave.c ****         CyIntDisable(SPI_Slave_RX_ISR_NUMBER);
 187              		.loc 1 331 0
 188 0000 0822     		movs	r2, #8
 189 0002 014B     		ldr	r3, .L15
 190 0004 1A60     		str	r2, [r3]
 191 0006 7047     		bx	lr
 192              	.L16:
 193              		.align	2
 194              	.L15:
 195 0008 80E100E0 		.word	-536813184
 196              		.cfi_endproc
 197              	.LFE7:
 198              		.size	SPI_Slave_DisableRxInt, .-SPI_Slave_DisableRxInt
 199              		.section	.text.SPI_Slave_SetTxInterruptMode,"ax",%progbits
 200              		.align	2
 201              		.global	SPI_Slave_SetTxInterruptMode
 202              		.thumb
 203              		.thumb_func
 204              		.type	SPI_Slave_SetTxInterruptMode, %function
 205              	SPI_Slave_SetTxInterruptMode:
 206              	.LFB8:
 332:Generated_Source\PSoC5/SPI_Slave.c ****     #endif /* SPI_Slave_INTERNAL_RX_INT_ENABLED */
 333:Generated_Source\PSoC5/SPI_Slave.c **** }
 334:Generated_Source\PSoC5/SPI_Slave.c **** 
 335:Generated_Source\PSoC5/SPI_Slave.c **** 
 336:Generated_Source\PSoC5/SPI_Slave.c **** /*******************************************************************************
 337:Generated_Source\PSoC5/SPI_Slave.c **** * Function Name: SPI_Slave_SetTxInterruptMode
 338:Generated_Source\PSoC5/SPI_Slave.c **** ********************************************************************************
 339:Generated_Source\PSoC5/SPI_Slave.c **** *
 340:Generated_Source\PSoC5/SPI_Slave.c **** * Summary:
 341:Generated_Source\PSoC5/SPI_Slave.c **** *  Configure which status bits trigger an interrupt event.
 342:Generated_Source\PSoC5/SPI_Slave.c **** *
 343:Generated_Source\PSoC5/SPI_Slave.c **** * Parameters:
 344:Generated_Source\PSoC5/SPI_Slave.c **** *  intSrc: An or'd combination of the desired status bit masks (defined in the
 345:Generated_Source\PSoC5/SPI_Slave.c **** *  header file).
 346:Generated_Source\PSoC5/SPI_Slave.c **** *
 347:Generated_Source\PSoC5/SPI_Slave.c **** * Return:
 348:Generated_Source\PSoC5/SPI_Slave.c **** *  None.
 349:Generated_Source\PSoC5/SPI_Slave.c **** *
 350:Generated_Source\PSoC5/SPI_Slave.c **** * Theory:
 351:Generated_Source\PSoC5/SPI_Slave.c **** *  Enables the output of specific status bits to the interrupt controller.
 352:Generated_Source\PSoC5/SPI_Slave.c **** *
 353:Generated_Source\PSoC5/SPI_Slave.c **** *******************************************************************************/
 354:Generated_Source\PSoC5/SPI_Slave.c **** void SPI_Slave_SetTxInterruptMode(uint8 intSrc) 
 355:Generated_Source\PSoC5/SPI_Slave.c **** {
 207              		.loc 1 355 0
 208              		.cfi_startproc
 209              		@ args = 0, pretend = 0, frame = 0
 210              		@ frame_needed = 0, uses_anonymous_args = 0
 211              		@ link register save eliminated.
 212              	.LVL4:
 356:Generated_Source\PSoC5/SPI_Slave.c ****     SPI_Slave_TX_STATUS_MASK_REG  = intSrc;
 213              		.loc 1 356 0
 214 0000 014B     		ldr	r3, .L18
ARM GAS  C:\Users\LARSHO~1\AppData\Local\Temp\ccO9gOSk.s 			page 11


 215 0002 1870     		strb	r0, [r3]
 216 0004 7047     		bx	lr
 217              	.L19:
 218 0006 00BF     		.align	2
 219              	.L18:
 220 0008 88640040 		.word	1073767560
 221              		.cfi_endproc
 222              	.LFE8:
 223              		.size	SPI_Slave_SetTxInterruptMode, .-SPI_Slave_SetTxInterruptMode
 224              		.section	.text.SPI_Slave_SetRxInterruptMode,"ax",%progbits
 225              		.align	2
 226              		.global	SPI_Slave_SetRxInterruptMode
 227              		.thumb
 228              		.thumb_func
 229              		.type	SPI_Slave_SetRxInterruptMode, %function
 230              	SPI_Slave_SetRxInterruptMode:
 231              	.LFB9:
 357:Generated_Source\PSoC5/SPI_Slave.c **** }
 358:Generated_Source\PSoC5/SPI_Slave.c **** 
 359:Generated_Source\PSoC5/SPI_Slave.c **** 
 360:Generated_Source\PSoC5/SPI_Slave.c **** /*******************************************************************************
 361:Generated_Source\PSoC5/SPI_Slave.c **** * Function Name: SPI_Slave_SetRxInterruptMode
 362:Generated_Source\PSoC5/SPI_Slave.c **** ********************************************************************************
 363:Generated_Source\PSoC5/SPI_Slave.c **** *
 364:Generated_Source\PSoC5/SPI_Slave.c **** * Summary:
 365:Generated_Source\PSoC5/SPI_Slave.c **** *  Configure which status bits trigger an interrupt event.
 366:Generated_Source\PSoC5/SPI_Slave.c **** *
 367:Generated_Source\PSoC5/SPI_Slave.c **** * Parameters:
 368:Generated_Source\PSoC5/SPI_Slave.c **** *  intSrc: An or'd combination of the desired status bit masks (defined in the
 369:Generated_Source\PSoC5/SPI_Slave.c **** *  header file).
 370:Generated_Source\PSoC5/SPI_Slave.c **** *
 371:Generated_Source\PSoC5/SPI_Slave.c **** * Return:
 372:Generated_Source\PSoC5/SPI_Slave.c **** *  None.
 373:Generated_Source\PSoC5/SPI_Slave.c **** *
 374:Generated_Source\PSoC5/SPI_Slave.c **** * Theory:
 375:Generated_Source\PSoC5/SPI_Slave.c **** *  Enables the output of specific status bits to the interrupt controller.
 376:Generated_Source\PSoC5/SPI_Slave.c **** *
 377:Generated_Source\PSoC5/SPI_Slave.c **** *******************************************************************************/
 378:Generated_Source\PSoC5/SPI_Slave.c **** void SPI_Slave_SetRxInterruptMode(uint8 intSrc) 
 379:Generated_Source\PSoC5/SPI_Slave.c **** {
 232              		.loc 1 379 0
 233              		.cfi_startproc
 234              		@ args = 0, pretend = 0, frame = 0
 235              		@ frame_needed = 0, uses_anonymous_args = 0
 236              		@ link register save eliminated.
 237              	.LVL5:
 380:Generated_Source\PSoC5/SPI_Slave.c ****     SPI_Slave_RX_STATUS_MASK_REG  = intSrc;
 238              		.loc 1 380 0
 239 0000 014B     		ldr	r3, .L21
 240 0002 1870     		strb	r0, [r3]
 241 0004 7047     		bx	lr
 242              	.L22:
 243 0006 00BF     		.align	2
 244              	.L21:
 245 0008 8A650040 		.word	1073767818
 246              		.cfi_endproc
 247              	.LFE9:
ARM GAS  C:\Users\LARSHO~1\AppData\Local\Temp\ccO9gOSk.s 			page 12


 248              		.size	SPI_Slave_SetRxInterruptMode, .-SPI_Slave_SetRxInterruptMode
 249              		.section	.text.SPI_Slave_ReadTxStatus,"ax",%progbits
 250              		.align	2
 251              		.global	SPI_Slave_ReadTxStatus
 252              		.thumb
 253              		.thumb_func
 254              		.type	SPI_Slave_ReadTxStatus, %function
 255              	SPI_Slave_ReadTxStatus:
 256              	.LFB10:
 381:Generated_Source\PSoC5/SPI_Slave.c **** }
 382:Generated_Source\PSoC5/SPI_Slave.c **** 
 383:Generated_Source\PSoC5/SPI_Slave.c **** 
 384:Generated_Source\PSoC5/SPI_Slave.c **** /*******************************************************************************
 385:Generated_Source\PSoC5/SPI_Slave.c **** * Function Name: SPI_Slave_ReadTxStatus
 386:Generated_Source\PSoC5/SPI_Slave.c **** ********************************************************************************
 387:Generated_Source\PSoC5/SPI_Slave.c **** *
 388:Generated_Source\PSoC5/SPI_Slave.c **** * Summary:
 389:Generated_Source\PSoC5/SPI_Slave.c **** *  Read the Tx status register for the component.
 390:Generated_Source\PSoC5/SPI_Slave.c **** *
 391:Generated_Source\PSoC5/SPI_Slave.c **** * Parameters:
 392:Generated_Source\PSoC5/SPI_Slave.c **** *  None.
 393:Generated_Source\PSoC5/SPI_Slave.c **** *
 394:Generated_Source\PSoC5/SPI_Slave.c **** * Return:
 395:Generated_Source\PSoC5/SPI_Slave.c **** *  Contents of the Tx status register.
 396:Generated_Source\PSoC5/SPI_Slave.c **** *
 397:Generated_Source\PSoC5/SPI_Slave.c **** * Global variables:
 398:Generated_Source\PSoC5/SPI_Slave.c **** *  SPI_Slave_swStatusTx - used to store in software status register,
 399:Generated_Source\PSoC5/SPI_Slave.c **** *  modified every function call - resets to zero.
 400:Generated_Source\PSoC5/SPI_Slave.c **** *
 401:Generated_Source\PSoC5/SPI_Slave.c **** * Theory:
 402:Generated_Source\PSoC5/SPI_Slave.c **** *  Allows the user and the API to read the Tx status register for error
 403:Generated_Source\PSoC5/SPI_Slave.c **** *  detection and flow control.
 404:Generated_Source\PSoC5/SPI_Slave.c **** *
 405:Generated_Source\PSoC5/SPI_Slave.c **** * Side Effects:
 406:Generated_Source\PSoC5/SPI_Slave.c **** *  Clear Tx status register of the component.
 407:Generated_Source\PSoC5/SPI_Slave.c **** *
 408:Generated_Source\PSoC5/SPI_Slave.c **** * Reentrant:
 409:Generated_Source\PSoC5/SPI_Slave.c **** *  No.
 410:Generated_Source\PSoC5/SPI_Slave.c **** *
 411:Generated_Source\PSoC5/SPI_Slave.c **** *******************************************************************************/
 412:Generated_Source\PSoC5/SPI_Slave.c **** uint8 SPI_Slave_ReadTxStatus(void) 
 413:Generated_Source\PSoC5/SPI_Slave.c **** {
 257              		.loc 1 413 0
 258              		.cfi_startproc
 259              		@ args = 0, pretend = 0, frame = 0
 260              		@ frame_needed = 0, uses_anonymous_args = 0
 261              		@ link register save eliminated.
 414:Generated_Source\PSoC5/SPI_Slave.c ****     uint8 tmpStatus;
 415:Generated_Source\PSoC5/SPI_Slave.c **** 
 416:Generated_Source\PSoC5/SPI_Slave.c ****     #if (SPI_Slave_TX_SOFTWARE_BUF_ENABLED)
 417:Generated_Source\PSoC5/SPI_Slave.c **** 
 418:Generated_Source\PSoC5/SPI_Slave.c ****         SPI_Slave_DisableTxInt();
 419:Generated_Source\PSoC5/SPI_Slave.c **** 
 420:Generated_Source\PSoC5/SPI_Slave.c ****         tmpStatus = SPI_Slave_GET_STATUS_TX(SPI_Slave_swStatusTx);
 421:Generated_Source\PSoC5/SPI_Slave.c **** 
 422:Generated_Source\PSoC5/SPI_Slave.c ****         SPI_Slave_swStatusTx = 0u;
 423:Generated_Source\PSoC5/SPI_Slave.c **** 
ARM GAS  C:\Users\LARSHO~1\AppData\Local\Temp\ccO9gOSk.s 			page 13


 424:Generated_Source\PSoC5/SPI_Slave.c ****         /* Enable Interrupts */
 425:Generated_Source\PSoC5/SPI_Slave.c ****         SPI_Slave_EnableTxInt();
 426:Generated_Source\PSoC5/SPI_Slave.c **** 
 427:Generated_Source\PSoC5/SPI_Slave.c ****     #else /* !SPI_Slave_TX_SOFTWARE_BUF_ENABLED */
 428:Generated_Source\PSoC5/SPI_Slave.c **** 
 429:Generated_Source\PSoC5/SPI_Slave.c ****         tmpStatus = SPI_Slave_TX_STATUS_REG;
 262              		.loc 1 429 0
 263 0000 014B     		ldr	r3, .L24
 264 0002 1878     		ldrb	r0, [r3]	@ zero_extendqisi2
 265              	.LVL6:
 430:Generated_Source\PSoC5/SPI_Slave.c **** 
 431:Generated_Source\PSoC5/SPI_Slave.c ****     #endif /* SPI_Slave_TX_SOFTWARE_BUF_ENABLED */
 432:Generated_Source\PSoC5/SPI_Slave.c **** 
 433:Generated_Source\PSoC5/SPI_Slave.c ****     return(tmpStatus);
 434:Generated_Source\PSoC5/SPI_Slave.c **** }
 266              		.loc 1 434 0
 267 0004 7047     		bx	lr
 268              	.L25:
 269 0006 00BF     		.align	2
 270              	.L24:
 271 0008 68640040 		.word	1073767528
 272              		.cfi_endproc
 273              	.LFE10:
 274              		.size	SPI_Slave_ReadTxStatus, .-SPI_Slave_ReadTxStatus
 275              		.section	.text.SPI_Slave_ReadRxStatus,"ax",%progbits
 276              		.align	2
 277              		.global	SPI_Slave_ReadRxStatus
 278              		.thumb
 279              		.thumb_func
 280              		.type	SPI_Slave_ReadRxStatus, %function
 281              	SPI_Slave_ReadRxStatus:
 282              	.LFB11:
 435:Generated_Source\PSoC5/SPI_Slave.c **** 
 436:Generated_Source\PSoC5/SPI_Slave.c **** 
 437:Generated_Source\PSoC5/SPI_Slave.c **** /*******************************************************************************
 438:Generated_Source\PSoC5/SPI_Slave.c **** * Function Name: SPI_Slave_ReadRxStatus
 439:Generated_Source\PSoC5/SPI_Slave.c **** ********************************************************************************
 440:Generated_Source\PSoC5/SPI_Slave.c **** *
 441:Generated_Source\PSoC5/SPI_Slave.c **** * Summary:
 442:Generated_Source\PSoC5/SPI_Slave.c **** *  Read the Rx status register for the component.
 443:Generated_Source\PSoC5/SPI_Slave.c **** *
 444:Generated_Source\PSoC5/SPI_Slave.c **** * Parameters:
 445:Generated_Source\PSoC5/SPI_Slave.c **** *  None.
 446:Generated_Source\PSoC5/SPI_Slave.c **** *
 447:Generated_Source\PSoC5/SPI_Slave.c **** * Return:
 448:Generated_Source\PSoC5/SPI_Slave.c **** *  Contents of the Rx status register.
 449:Generated_Source\PSoC5/SPI_Slave.c **** *
 450:Generated_Source\PSoC5/SPI_Slave.c **** * Global variables:
 451:Generated_Source\PSoC5/SPI_Slave.c **** *  SPI_Slave_swStatusRx - used to store in software Rx status register,
 452:Generated_Source\PSoC5/SPI_Slave.c **** *  modified every function call - resets to zero.
 453:Generated_Source\PSoC5/SPI_Slave.c **** *
 454:Generated_Source\PSoC5/SPI_Slave.c **** * Theory:
 455:Generated_Source\PSoC5/SPI_Slave.c **** *  Allows the user and the API to read the Rx status register for error
 456:Generated_Source\PSoC5/SPI_Slave.c **** *  detection and flow control.
 457:Generated_Source\PSoC5/SPI_Slave.c **** *
 458:Generated_Source\PSoC5/SPI_Slave.c **** * Side Effects:
 459:Generated_Source\PSoC5/SPI_Slave.c **** *  Clear Rx status register of the component.
ARM GAS  C:\Users\LARSHO~1\AppData\Local\Temp\ccO9gOSk.s 			page 14


 460:Generated_Source\PSoC5/SPI_Slave.c **** *
 461:Generated_Source\PSoC5/SPI_Slave.c **** * Reentrant:
 462:Generated_Source\PSoC5/SPI_Slave.c **** *  No.
 463:Generated_Source\PSoC5/SPI_Slave.c **** *
 464:Generated_Source\PSoC5/SPI_Slave.c **** *******************************************************************************/
 465:Generated_Source\PSoC5/SPI_Slave.c **** uint8 SPI_Slave_ReadRxStatus(void) 
 466:Generated_Source\PSoC5/SPI_Slave.c **** {
 283              		.loc 1 466 0
 284              		.cfi_startproc
 285              		@ args = 0, pretend = 0, frame = 0
 286              		@ frame_needed = 0, uses_anonymous_args = 0
 287              		@ link register save eliminated.
 467:Generated_Source\PSoC5/SPI_Slave.c ****     uint8 tmpStatus;
 468:Generated_Source\PSoC5/SPI_Slave.c **** 
 469:Generated_Source\PSoC5/SPI_Slave.c ****     #if (SPI_Slave_RX_SOFTWARE_BUF_ENABLED)
 470:Generated_Source\PSoC5/SPI_Slave.c **** 
 471:Generated_Source\PSoC5/SPI_Slave.c ****         SPI_Slave_DisableRxInt();
 472:Generated_Source\PSoC5/SPI_Slave.c **** 
 473:Generated_Source\PSoC5/SPI_Slave.c ****         tmpStatus = SPI_Slave_GET_STATUS_RX(SPI_Slave_swStatusRx);
 474:Generated_Source\PSoC5/SPI_Slave.c **** 
 475:Generated_Source\PSoC5/SPI_Slave.c ****         SPI_Slave_swStatusRx = 0u;
 476:Generated_Source\PSoC5/SPI_Slave.c **** 
 477:Generated_Source\PSoC5/SPI_Slave.c ****         /* Enable Interrupts */
 478:Generated_Source\PSoC5/SPI_Slave.c ****         SPI_Slave_EnableRxInt();
 479:Generated_Source\PSoC5/SPI_Slave.c **** 
 480:Generated_Source\PSoC5/SPI_Slave.c ****     #else /* !SPI_Slave_RX_SOFTWARE_BUF_ENABLED */
 481:Generated_Source\PSoC5/SPI_Slave.c **** 
 482:Generated_Source\PSoC5/SPI_Slave.c ****         tmpStatus = SPI_Slave_RX_STATUS_REG;
 288              		.loc 1 482 0
 289 0000 014B     		ldr	r3, .L27
 290 0002 1878     		ldrb	r0, [r3]	@ zero_extendqisi2
 291              	.LVL7:
 483:Generated_Source\PSoC5/SPI_Slave.c **** 
 484:Generated_Source\PSoC5/SPI_Slave.c ****     #endif /* SPI_Slave_RX_SOFTWARE_BUF_ENABLED */
 485:Generated_Source\PSoC5/SPI_Slave.c **** 
 486:Generated_Source\PSoC5/SPI_Slave.c ****     return(tmpStatus);
 487:Generated_Source\PSoC5/SPI_Slave.c **** }
 292              		.loc 1 487 0
 293 0004 7047     		bx	lr
 294              	.L28:
 295 0006 00BF     		.align	2
 296              	.L27:
 297 0008 6A650040 		.word	1073767786
 298              		.cfi_endproc
 299              	.LFE11:
 300              		.size	SPI_Slave_ReadRxStatus, .-SPI_Slave_ReadRxStatus
 301              		.section	.text.SPI_Slave_WriteTxData,"ax",%progbits
 302              		.align	2
 303              		.global	SPI_Slave_WriteTxData
 304              		.thumb
 305              		.thumb_func
 306              		.type	SPI_Slave_WriteTxData, %function
 307              	SPI_Slave_WriteTxData:
 308              	.LFB12:
 488:Generated_Source\PSoC5/SPI_Slave.c **** 
 489:Generated_Source\PSoC5/SPI_Slave.c **** 
 490:Generated_Source\PSoC5/SPI_Slave.c **** /*******************************************************************************
ARM GAS  C:\Users\LARSHO~1\AppData\Local\Temp\ccO9gOSk.s 			page 15


 491:Generated_Source\PSoC5/SPI_Slave.c **** * Function Name: SPI_Slave_WriteTxData
 492:Generated_Source\PSoC5/SPI_Slave.c **** ********************************************************************************
 493:Generated_Source\PSoC5/SPI_Slave.c **** *
 494:Generated_Source\PSoC5/SPI_Slave.c **** * Summary:
 495:Generated_Source\PSoC5/SPI_Slave.c **** *  Write a byte of data to be sent across the SPI.
 496:Generated_Source\PSoC5/SPI_Slave.c **** *
 497:Generated_Source\PSoC5/SPI_Slave.c **** * Parameters:
 498:Generated_Source\PSoC5/SPI_Slave.c **** *  txDataByte: The data value to send across the SPI.
 499:Generated_Source\PSoC5/SPI_Slave.c **** *
 500:Generated_Source\PSoC5/SPI_Slave.c **** * Return:
 501:Generated_Source\PSoC5/SPI_Slave.c **** *  None.
 502:Generated_Source\PSoC5/SPI_Slave.c **** *
 503:Generated_Source\PSoC5/SPI_Slave.c **** * Global variables:
 504:Generated_Source\PSoC5/SPI_Slave.c **** *  SPI_Slave_txBufferWrite - used for the account of the bytes which
 505:Generated_Source\PSoC5/SPI_Slave.c **** *  have been written down in the TX software buffer, modified every function
 506:Generated_Source\PSoC5/SPI_Slave.c **** *  call if TX Software Buffer is used.
 507:Generated_Source\PSoC5/SPI_Slave.c **** *  SPI_Slave_txBufferRead - used for the account of the bytes which
 508:Generated_Source\PSoC5/SPI_Slave.c **** *  have been read from the TX software buffer.
 509:Generated_Source\PSoC5/SPI_Slave.c **** *  SPI_Slave_txBuffer[SPI_Slave_TX_BUFFER_SIZE] - used to store
 510:Generated_Source\PSoC5/SPI_Slave.c **** *  data to sending, modified every function call if TX Software Buffer is used.
 511:Generated_Source\PSoC5/SPI_Slave.c **** *
 512:Generated_Source\PSoC5/SPI_Slave.c **** * Theory:
 513:Generated_Source\PSoC5/SPI_Slave.c **** *  Allows the user to transmit any byte of data in a single transfer.
 514:Generated_Source\PSoC5/SPI_Slave.c **** *
 515:Generated_Source\PSoC5/SPI_Slave.c **** * Side Effects:
 516:Generated_Source\PSoC5/SPI_Slave.c **** *  If this function is called again before the previous byte is finished then
 517:Generated_Source\PSoC5/SPI_Slave.c **** *  the next byte will be appended to the transfer with no time between
 518:Generated_Source\PSoC5/SPI_Slave.c **** *  the byte transfers. Clear Tx status register of the component.
 519:Generated_Source\PSoC5/SPI_Slave.c **** *
 520:Generated_Source\PSoC5/SPI_Slave.c **** * Reentrant:
 521:Generated_Source\PSoC5/SPI_Slave.c **** *  No.
 522:Generated_Source\PSoC5/SPI_Slave.c **** *
 523:Generated_Source\PSoC5/SPI_Slave.c **** *******************************************************************************/
 524:Generated_Source\PSoC5/SPI_Slave.c **** void SPI_Slave_WriteTxData(uint8 txData) 
 525:Generated_Source\PSoC5/SPI_Slave.c **** {
 309              		.loc 1 525 0
 310              		.cfi_startproc
 311              		@ args = 0, pretend = 0, frame = 0
 312              		@ frame_needed = 0, uses_anonymous_args = 0
 313              		@ link register save eliminated.
 314              	.LVL8:
 315              	.L30:
 526:Generated_Source\PSoC5/SPI_Slave.c ****     #if(SPI_Slave_TX_SOFTWARE_BUF_ENABLED)
 527:Generated_Source\PSoC5/SPI_Slave.c **** 
 528:Generated_Source\PSoC5/SPI_Slave.c ****         uint8 tempStatus;
 529:Generated_Source\PSoC5/SPI_Slave.c ****         uint8 tmpTxBufferRead;
 530:Generated_Source\PSoC5/SPI_Slave.c **** 
 531:Generated_Source\PSoC5/SPI_Slave.c ****         /* Block if buffer is full, so we don't overwrite. */
 532:Generated_Source\PSoC5/SPI_Slave.c ****         do
 533:Generated_Source\PSoC5/SPI_Slave.c ****         {
 534:Generated_Source\PSoC5/SPI_Slave.c ****             tmpTxBufferRead = SPI_Slave_txBufferRead;
 535:Generated_Source\PSoC5/SPI_Slave.c ****             if (0u == tmpTxBufferRead)
 536:Generated_Source\PSoC5/SPI_Slave.c ****             {
 537:Generated_Source\PSoC5/SPI_Slave.c ****                 tmpTxBufferRead = SPI_Slave_TX_BUFFER_SIZE - 1u;
 538:Generated_Source\PSoC5/SPI_Slave.c ****             }
 539:Generated_Source\PSoC5/SPI_Slave.c ****             else
 540:Generated_Source\PSoC5/SPI_Slave.c ****             {
ARM GAS  C:\Users\LARSHO~1\AppData\Local\Temp\ccO9gOSk.s 			page 16


 541:Generated_Source\PSoC5/SPI_Slave.c ****                 tmpTxBufferRead--;
 542:Generated_Source\PSoC5/SPI_Slave.c ****             }
 543:Generated_Source\PSoC5/SPI_Slave.c **** 
 544:Generated_Source\PSoC5/SPI_Slave.c ****         }
 545:Generated_Source\PSoC5/SPI_Slave.c ****         while(tmpTxBufferRead == SPI_Slave_txBufferWrite);
 546:Generated_Source\PSoC5/SPI_Slave.c **** 
 547:Generated_Source\PSoC5/SPI_Slave.c ****         /* Disable Interrupt to protect variables that could change on interrupt. */
 548:Generated_Source\PSoC5/SPI_Slave.c ****         SPI_Slave_DisableTxInt();
 549:Generated_Source\PSoC5/SPI_Slave.c **** 
 550:Generated_Source\PSoC5/SPI_Slave.c ****         tempStatus = SPI_Slave_GET_STATUS_TX(SPI_Slave_swStatusTx);
 551:Generated_Source\PSoC5/SPI_Slave.c ****         SPI_Slave_swStatusTx = tempStatus;
 552:Generated_Source\PSoC5/SPI_Slave.c **** 
 553:Generated_Source\PSoC5/SPI_Slave.c ****         if((SPI_Slave_txBufferRead == SPI_Slave_txBufferWrite) &&
 554:Generated_Source\PSoC5/SPI_Slave.c ****             (0u != (SPI_Slave_swStatusTx & SPI_Slave_STS_TX_FIFO_NOT_FULL)))
 555:Generated_Source\PSoC5/SPI_Slave.c ****         {
 556:Generated_Source\PSoC5/SPI_Slave.c ****             /* Put data element into the TX FIFO */
 557:Generated_Source\PSoC5/SPI_Slave.c ****             CY_SET_REG8(SPI_Slave_TXDATA_PTR, txData);
 558:Generated_Source\PSoC5/SPI_Slave.c ****         }
 559:Generated_Source\PSoC5/SPI_Slave.c ****         else
 560:Generated_Source\PSoC5/SPI_Slave.c ****         {
 561:Generated_Source\PSoC5/SPI_Slave.c ****             /* Put data element into the software buffer */
 562:Generated_Source\PSoC5/SPI_Slave.c ****             SPI_Slave_txBufferWrite++;
 563:Generated_Source\PSoC5/SPI_Slave.c ****             if(SPI_Slave_txBufferWrite >= SPI_Slave_TX_BUFFER_SIZE)
 564:Generated_Source\PSoC5/SPI_Slave.c ****             {
 565:Generated_Source\PSoC5/SPI_Slave.c ****                 SPI_Slave_txBufferWrite = 0u;
 566:Generated_Source\PSoC5/SPI_Slave.c ****             }
 567:Generated_Source\PSoC5/SPI_Slave.c **** 
 568:Generated_Source\PSoC5/SPI_Slave.c ****             if(SPI_Slave_txBufferWrite == SPI_Slave_txBufferRead)
 569:Generated_Source\PSoC5/SPI_Slave.c ****             {
 570:Generated_Source\PSoC5/SPI_Slave.c ****                 SPI_Slave_txBufferRead++;
 571:Generated_Source\PSoC5/SPI_Slave.c ****                 if(SPI_Slave_txBufferRead >= SPI_Slave_RX_BUFFER_SIZE)
 572:Generated_Source\PSoC5/SPI_Slave.c ****                 {
 573:Generated_Source\PSoC5/SPI_Slave.c ****                     SPI_Slave_txBufferRead = 0u;
 574:Generated_Source\PSoC5/SPI_Slave.c ****                 }
 575:Generated_Source\PSoC5/SPI_Slave.c ****                 SPI_Slave_txBufferFull = 1u;
 576:Generated_Source\PSoC5/SPI_Slave.c ****             }
 577:Generated_Source\PSoC5/SPI_Slave.c **** 
 578:Generated_Source\PSoC5/SPI_Slave.c ****             SPI_Slave_txBuffer[SPI_Slave_txBufferWrite] = txData;
 579:Generated_Source\PSoC5/SPI_Slave.c **** 
 580:Generated_Source\PSoC5/SPI_Slave.c ****             SPI_Slave_TX_STATUS_MASK_REG |= SPI_Slave_STS_TX_FIFO_NOT_FULL;
 581:Generated_Source\PSoC5/SPI_Slave.c ****         }
 582:Generated_Source\PSoC5/SPI_Slave.c **** 
 583:Generated_Source\PSoC5/SPI_Slave.c ****         /* Enable Interrupt. */
 584:Generated_Source\PSoC5/SPI_Slave.c ****         SPI_Slave_EnableTxInt();
 585:Generated_Source\PSoC5/SPI_Slave.c **** 
 586:Generated_Source\PSoC5/SPI_Slave.c ****     #else /* !SPI_Slave_TX_SOFTWARE_BUF_ENABLED */
 587:Generated_Source\PSoC5/SPI_Slave.c ****         /* Wait until TX FIFO has a place */
 588:Generated_Source\PSoC5/SPI_Slave.c ****         while(0u == (SPI_Slave_TX_STATUS_REG & SPI_Slave_STS_TX_FIFO_NOT_FULL))
 316              		.loc 1 588 0 discriminator 1
 317 0000 034B     		ldr	r3, .L31
 318 0002 1B78     		ldrb	r3, [r3]	@ zero_extendqisi2
 319 0004 13F0020F 		tst	r3, #2
 320 0008 FAD0     		beq	.L30
 589:Generated_Source\PSoC5/SPI_Slave.c ****         {
 590:Generated_Source\PSoC5/SPI_Slave.c ****         }
 591:Generated_Source\PSoC5/SPI_Slave.c **** 
 592:Generated_Source\PSoC5/SPI_Slave.c ****         /* Put data element into the TX FIFO */
ARM GAS  C:\Users\LARSHO~1\AppData\Local\Temp\ccO9gOSk.s 			page 17


 593:Generated_Source\PSoC5/SPI_Slave.c ****         CY_SET_REG8(SPI_Slave_TXDATA_PTR, txData);
 321              		.loc 1 593 0
 322 000a 024B     		ldr	r3, .L31+4
 323 000c 1870     		strb	r0, [r3]
 324 000e 7047     		bx	lr
 325              	.L32:
 326              		.align	2
 327              	.L31:
 328 0010 68640040 		.word	1073767528
 329 0014 48640040 		.word	1073767496
 330              		.cfi_endproc
 331              	.LFE12:
 332              		.size	SPI_Slave_WriteTxData, .-SPI_Slave_WriteTxData
 333              		.section	.text.SPI_Slave_ReadRxData,"ax",%progbits
 334              		.align	2
 335              		.global	SPI_Slave_ReadRxData
 336              		.thumb
 337              		.thumb_func
 338              		.type	SPI_Slave_ReadRxData, %function
 339              	SPI_Slave_ReadRxData:
 340              	.LFB13:
 594:Generated_Source\PSoC5/SPI_Slave.c ****         
 595:Generated_Source\PSoC5/SPI_Slave.c ****     #endif /* SPI_Slave_TX_SOFTWARE_BUF_ENABLED */
 596:Generated_Source\PSoC5/SPI_Slave.c **** }
 597:Generated_Source\PSoC5/SPI_Slave.c **** 
 598:Generated_Source\PSoC5/SPI_Slave.c **** #if(SPI_Slave_MODE_USE_ZERO != 0u)
 599:Generated_Source\PSoC5/SPI_Slave.c **** 
 600:Generated_Source\PSoC5/SPI_Slave.c ****     /*******************************************************************************
 601:Generated_Source\PSoC5/SPI_Slave.c ****     * Function Name: SPI_Slave_WriteTxDataZero
 602:Generated_Source\PSoC5/SPI_Slave.c ****     ********************************************************************************
 603:Generated_Source\PSoC5/SPI_Slave.c ****     *
 604:Generated_Source\PSoC5/SPI_Slave.c ****     * Summary:
 605:Generated_Source\PSoC5/SPI_Slave.c ****     *  Write a byte zero of data to be sent across the SPI. This must be used in
 606:Generated_Source\PSoC5/SPI_Slave.c ****     *  Mode 00 and 01 if the FIFO is empty and data is not being sent.
 607:Generated_Source\PSoC5/SPI_Slave.c ****     *
 608:Generated_Source\PSoC5/SPI_Slave.c ****     * Parameters:
 609:Generated_Source\PSoC5/SPI_Slave.c ****     *  txDataByte: The data value to send across the SPI.
 610:Generated_Source\PSoC5/SPI_Slave.c ****     *
 611:Generated_Source\PSoC5/SPI_Slave.c ****     * Return:
 612:Generated_Source\PSoC5/SPI_Slave.c ****     *  None.
 613:Generated_Source\PSoC5/SPI_Slave.c ****     *
 614:Generated_Source\PSoC5/SPI_Slave.c ****     * Theory:
 615:Generated_Source\PSoC5/SPI_Slave.c ****     *  Allows the user to transmit any byte of data in a single transfer. Clear
 616:Generated_Source\PSoC5/SPI_Slave.c ****     *  status register of the component.
 617:Generated_Source\PSoC5/SPI_Slave.c ****     *
 618:Generated_Source\PSoC5/SPI_Slave.c ****     *******************************************************************************/
 619:Generated_Source\PSoC5/SPI_Slave.c ****     void SPI_Slave_WriteTxDataZero(uint8 txDataByte)
 620:Generated_Source\PSoC5/SPI_Slave.c ****                                         
 621:Generated_Source\PSoC5/SPI_Slave.c ****     {
 622:Generated_Source\PSoC5/SPI_Slave.c ****         CY_SET_REG8(SPI_Slave_TXDATA_ZERO_PTR, txDataByte);
 623:Generated_Source\PSoC5/SPI_Slave.c ****     }
 624:Generated_Source\PSoC5/SPI_Slave.c **** 
 625:Generated_Source\PSoC5/SPI_Slave.c **** #endif /* (SPI_Slave_MODE_USE_ZERO != 0u) */
 626:Generated_Source\PSoC5/SPI_Slave.c **** 
 627:Generated_Source\PSoC5/SPI_Slave.c **** 
 628:Generated_Source\PSoC5/SPI_Slave.c **** /*******************************************************************************
 629:Generated_Source\PSoC5/SPI_Slave.c **** * Function Name: SPI_Slave_ReadRxData
ARM GAS  C:\Users\LARSHO~1\AppData\Local\Temp\ccO9gOSk.s 			page 18


 630:Generated_Source\PSoC5/SPI_Slave.c **** ********************************************************************************
 631:Generated_Source\PSoC5/SPI_Slave.c **** *
 632:Generated_Source\PSoC5/SPI_Slave.c **** * Summary:
 633:Generated_Source\PSoC5/SPI_Slave.c **** *  Read the next byte of data received across the SPI.
 634:Generated_Source\PSoC5/SPI_Slave.c **** *
 635:Generated_Source\PSoC5/SPI_Slave.c **** * Parameters:
 636:Generated_Source\PSoC5/SPI_Slave.c **** *  None.
 637:Generated_Source\PSoC5/SPI_Slave.c **** *
 638:Generated_Source\PSoC5/SPI_Slave.c **** * Return:
 639:Generated_Source\PSoC5/SPI_Slave.c **** *  The next byte of data read from the FIFO.
 640:Generated_Source\PSoC5/SPI_Slave.c **** *
 641:Generated_Source\PSoC5/SPI_Slave.c **** * Global variables:
 642:Generated_Source\PSoC5/SPI_Slave.c **** *  SPI_Slave_rxBufferWrite - used for the account of the bytes which
 643:Generated_Source\PSoC5/SPI_Slave.c **** *  have been written down in the RX software buffer.
 644:Generated_Source\PSoC5/SPI_Slave.c **** *  SPI_Slave_rxBufferRead - used for the account of the bytes which
 645:Generated_Source\PSoC5/SPI_Slave.c **** *  have been read from the RX software buffer, modified every function
 646:Generated_Source\PSoC5/SPI_Slave.c **** *  call if RX Software Buffer is used.
 647:Generated_Source\PSoC5/SPI_Slave.c **** *  SPI_Slave_rxBuffer[SPI_Slave_RX_BUFFER_SIZE] - used to store
 648:Generated_Source\PSoC5/SPI_Slave.c **** *  received data.
 649:Generated_Source\PSoC5/SPI_Slave.c **** *
 650:Generated_Source\PSoC5/SPI_Slave.c **** * Theory:
 651:Generated_Source\PSoC5/SPI_Slave.c **** *  Allows the user to read a byte of data received.
 652:Generated_Source\PSoC5/SPI_Slave.c **** *
 653:Generated_Source\PSoC5/SPI_Slave.c **** * Side Effects:
 654:Generated_Source\PSoC5/SPI_Slave.c **** *  Will return invalid data if the FIFO is empty.  User should poll for FIFO
 655:Generated_Source\PSoC5/SPI_Slave.c **** *  empty status before calling Read function.
 656:Generated_Source\PSoC5/SPI_Slave.c **** *
 657:Generated_Source\PSoC5/SPI_Slave.c **** * Reentrant:
 658:Generated_Source\PSoC5/SPI_Slave.c **** *  No.
 659:Generated_Source\PSoC5/SPI_Slave.c **** *
 660:Generated_Source\PSoC5/SPI_Slave.c **** *******************************************************************************/
 661:Generated_Source\PSoC5/SPI_Slave.c **** uint8 SPI_Slave_ReadRxData(void) 
 662:Generated_Source\PSoC5/SPI_Slave.c **** {
 341              		.loc 1 662 0
 342              		.cfi_startproc
 343              		@ args = 0, pretend = 0, frame = 0
 344              		@ frame_needed = 0, uses_anonymous_args = 0
 345              		@ link register save eliminated.
 663:Generated_Source\PSoC5/SPI_Slave.c ****     uint8 rxData;
 664:Generated_Source\PSoC5/SPI_Slave.c **** 
 665:Generated_Source\PSoC5/SPI_Slave.c ****     #if(SPI_Slave_RX_SOFTWARE_BUF_ENABLED)
 666:Generated_Source\PSoC5/SPI_Slave.c **** 
 667:Generated_Source\PSoC5/SPI_Slave.c ****         /* Disable Interrupt to protect variables that could change on interrupt. */
 668:Generated_Source\PSoC5/SPI_Slave.c ****         SPI_Slave_DisableRxInt();
 669:Generated_Source\PSoC5/SPI_Slave.c **** 
 670:Generated_Source\PSoC5/SPI_Slave.c ****         if(SPI_Slave_rxBufferRead != SPI_Slave_rxBufferWrite)
 671:Generated_Source\PSoC5/SPI_Slave.c ****         {
 672:Generated_Source\PSoC5/SPI_Slave.c ****             if(SPI_Slave_rxBufferFull == 0u)
 673:Generated_Source\PSoC5/SPI_Slave.c ****             {
 674:Generated_Source\PSoC5/SPI_Slave.c ****                 SPI_Slave_rxBufferRead++;
 675:Generated_Source\PSoC5/SPI_Slave.c ****                 if(SPI_Slave_rxBufferRead >= SPI_Slave_RX_BUFFER_SIZE)
 676:Generated_Source\PSoC5/SPI_Slave.c ****                 {
 677:Generated_Source\PSoC5/SPI_Slave.c ****                     SPI_Slave_rxBufferRead = 0u;
 678:Generated_Source\PSoC5/SPI_Slave.c ****                 }
 679:Generated_Source\PSoC5/SPI_Slave.c ****             }
 680:Generated_Source\PSoC5/SPI_Slave.c ****             else
 681:Generated_Source\PSoC5/SPI_Slave.c ****             {
ARM GAS  C:\Users\LARSHO~1\AppData\Local\Temp\ccO9gOSk.s 			page 19


 682:Generated_Source\PSoC5/SPI_Slave.c ****                 SPI_Slave_rxBufferFull = 0u;
 683:Generated_Source\PSoC5/SPI_Slave.c ****             }
 684:Generated_Source\PSoC5/SPI_Slave.c ****         }
 685:Generated_Source\PSoC5/SPI_Slave.c **** 
 686:Generated_Source\PSoC5/SPI_Slave.c ****         rxData = SPI_Slave_rxBuffer[SPI_Slave_rxBufferRead];
 687:Generated_Source\PSoC5/SPI_Slave.c **** 
 688:Generated_Source\PSoC5/SPI_Slave.c ****         /* Enable Interrupt. */
 689:Generated_Source\PSoC5/SPI_Slave.c ****         SPI_Slave_EnableRxInt();
 690:Generated_Source\PSoC5/SPI_Slave.c **** 
 691:Generated_Source\PSoC5/SPI_Slave.c ****     #else /* !SPI_Slave_RX_SOFTWARE_BUF_ENABLED */
 692:Generated_Source\PSoC5/SPI_Slave.c **** 
 693:Generated_Source\PSoC5/SPI_Slave.c ****         rxData = CY_GET_REG8(SPI_Slave_RXDATA_PTR);
 346              		.loc 1 693 0
 347 0000 014B     		ldr	r3, .L34
 348 0002 1878     		ldrb	r0, [r3]	@ zero_extendqisi2
 349              	.LVL9:
 694:Generated_Source\PSoC5/SPI_Slave.c **** 
 695:Generated_Source\PSoC5/SPI_Slave.c ****     #endif /* SPI_Slave_RX_SOFTWARE_BUF_ENABLED */
 696:Generated_Source\PSoC5/SPI_Slave.c **** 
 697:Generated_Source\PSoC5/SPI_Slave.c ****     return (rxData);
 698:Generated_Source\PSoC5/SPI_Slave.c **** 
 699:Generated_Source\PSoC5/SPI_Slave.c **** }
 350              		.loc 1 699 0
 351 0004 7047     		bx	lr
 352              	.L35:
 353 0006 00BF     		.align	2
 354              	.L34:
 355 0008 58640040 		.word	1073767512
 356              		.cfi_endproc
 357              	.LFE13:
 358              		.size	SPI_Slave_ReadRxData, .-SPI_Slave_ReadRxData
 359              		.section	.text.SPI_Slave_GetRxBufferSize,"ax",%progbits
 360              		.align	2
 361              		.global	SPI_Slave_GetRxBufferSize
 362              		.thumb
 363              		.thumb_func
 364              		.type	SPI_Slave_GetRxBufferSize, %function
 365              	SPI_Slave_GetRxBufferSize:
 366              	.LFB14:
 700:Generated_Source\PSoC5/SPI_Slave.c **** 
 701:Generated_Source\PSoC5/SPI_Slave.c **** 
 702:Generated_Source\PSoC5/SPI_Slave.c **** /*******************************************************************************
 703:Generated_Source\PSoC5/SPI_Slave.c **** * Function Name: SPI_Slave_GetRxBufferSize
 704:Generated_Source\PSoC5/SPI_Slave.c **** ********************************************************************************
 705:Generated_Source\PSoC5/SPI_Slave.c **** *
 706:Generated_Source\PSoC5/SPI_Slave.c **** * Summary:
 707:Generated_Source\PSoC5/SPI_Slave.c **** *  Returns the number of bytes/words of data currently held in the RX buffer.
 708:Generated_Source\PSoC5/SPI_Slave.c **** *  If RX Software Buffer not used then function return 0 if FIFO empty or 1 if
 709:Generated_Source\PSoC5/SPI_Slave.c **** *  FIFO not empty. In another case function return size of RX Software Buffer.
 710:Generated_Source\PSoC5/SPI_Slave.c **** *
 711:Generated_Source\PSoC5/SPI_Slave.c **** * Parameters:
 712:Generated_Source\PSoC5/SPI_Slave.c **** *  None.
 713:Generated_Source\PSoC5/SPI_Slave.c **** *
 714:Generated_Source\PSoC5/SPI_Slave.c **** * Return:
 715:Generated_Source\PSoC5/SPI_Slave.c **** *  Integer count of the number of bytes/words in the RX buffer.
 716:Generated_Source\PSoC5/SPI_Slave.c **** *
 717:Generated_Source\PSoC5/SPI_Slave.c **** * Global variables:
ARM GAS  C:\Users\LARSHO~1\AppData\Local\Temp\ccO9gOSk.s 			page 20


 718:Generated_Source\PSoC5/SPI_Slave.c **** *  SPI_Slave_rxBufferWrite - used for the account of the bytes which
 719:Generated_Source\PSoC5/SPI_Slave.c **** *  have been written down in the RX software buffer.
 720:Generated_Source\PSoC5/SPI_Slave.c **** *  SPI_Slave_rxBufferRead - used for the account of the bytes which
 721:Generated_Source\PSoC5/SPI_Slave.c **** *  have been read from the RX software buffer.
 722:Generated_Source\PSoC5/SPI_Slave.c **** *
 723:Generated_Source\PSoC5/SPI_Slave.c **** * Theory:
 724:Generated_Source\PSoC5/SPI_Slave.c **** *  Allows the user to find out how full the RX Buffer is.
 725:Generated_Source\PSoC5/SPI_Slave.c **** *
 726:Generated_Source\PSoC5/SPI_Slave.c **** *******************************************************************************/
 727:Generated_Source\PSoC5/SPI_Slave.c **** uint8 SPI_Slave_GetRxBufferSize(void) 
 728:Generated_Source\PSoC5/SPI_Slave.c **** {
 367              		.loc 1 728 0
 368              		.cfi_startproc
 369              		@ args = 0, pretend = 0, frame = 0
 370              		@ frame_needed = 0, uses_anonymous_args = 0
 371              		@ link register save eliminated.
 729:Generated_Source\PSoC5/SPI_Slave.c ****     uint8 size;
 730:Generated_Source\PSoC5/SPI_Slave.c **** 
 731:Generated_Source\PSoC5/SPI_Slave.c ****     #if(SPI_Slave_RX_SOFTWARE_BUF_ENABLED)
 732:Generated_Source\PSoC5/SPI_Slave.c **** 
 733:Generated_Source\PSoC5/SPI_Slave.c ****         /* Disable Interrupt to protect variables that could change on interrupt. */
 734:Generated_Source\PSoC5/SPI_Slave.c ****         SPI_Slave_DisableRxInt();
 735:Generated_Source\PSoC5/SPI_Slave.c **** 
 736:Generated_Source\PSoC5/SPI_Slave.c ****         if(SPI_Slave_rxBufferRead == SPI_Slave_rxBufferWrite)
 737:Generated_Source\PSoC5/SPI_Slave.c ****         {
 738:Generated_Source\PSoC5/SPI_Slave.c ****             size = 0u; /* No data in RX buffer */
 739:Generated_Source\PSoC5/SPI_Slave.c ****         }
 740:Generated_Source\PSoC5/SPI_Slave.c ****         else if(SPI_Slave_rxBufferRead < SPI_Slave_rxBufferWrite)
 741:Generated_Source\PSoC5/SPI_Slave.c ****         {
 742:Generated_Source\PSoC5/SPI_Slave.c ****             size = (SPI_Slave_rxBufferWrite - SPI_Slave_rxBufferRead);
 743:Generated_Source\PSoC5/SPI_Slave.c ****         }
 744:Generated_Source\PSoC5/SPI_Slave.c ****         else
 745:Generated_Source\PSoC5/SPI_Slave.c ****         {
 746:Generated_Source\PSoC5/SPI_Slave.c ****             size = (SPI_Slave_RX_BUFFER_SIZE - SPI_Slave_rxBufferRead) + SPI_Slave_rxBufferWrite;
 747:Generated_Source\PSoC5/SPI_Slave.c ****         }
 748:Generated_Source\PSoC5/SPI_Slave.c **** 
 749:Generated_Source\PSoC5/SPI_Slave.c ****         /* Enable interrupt. */
 750:Generated_Source\PSoC5/SPI_Slave.c ****         SPI_Slave_EnableRxInt();
 751:Generated_Source\PSoC5/SPI_Slave.c **** 
 752:Generated_Source\PSoC5/SPI_Slave.c ****     #else /* !SPI_Slave_RX_SOFTWARE_BUF_ENABLED*/
 753:Generated_Source\PSoC5/SPI_Slave.c **** 
 754:Generated_Source\PSoC5/SPI_Slave.c ****         /* We can only know if there is data in the fifo. */
 755:Generated_Source\PSoC5/SPI_Slave.c ****         size = ((SPI_Slave_RX_STATUS_REG & SPI_Slave_STS_RX_FIFO_NOT_EMPTY) != 0u) ? 1u : 0u;
 372              		.loc 1 755 0
 373 0000 044B     		ldr	r3, .L39
 374 0002 1B78     		ldrb	r3, [r3]	@ zero_extendqisi2
 375 0004 13F0080F 		tst	r3, #8
 376 0008 01D0     		beq	.L38
 377 000a 0120     		movs	r0, #1
 378 000c 7047     		bx	lr
 379              	.L38:
 380 000e 0020     		movs	r0, #0
 381              	.LVL10:
 756:Generated_Source\PSoC5/SPI_Slave.c **** 
 757:Generated_Source\PSoC5/SPI_Slave.c ****     #endif /* SPI_Slave_RX_SOFTWARE_BUF_ENABLED */
 758:Generated_Source\PSoC5/SPI_Slave.c **** 
 759:Generated_Source\PSoC5/SPI_Slave.c ****     return (size);
ARM GAS  C:\Users\LARSHO~1\AppData\Local\Temp\ccO9gOSk.s 			page 21


 760:Generated_Source\PSoC5/SPI_Slave.c **** }
 382              		.loc 1 760 0
 383 0010 7047     		bx	lr
 384              	.L40:
 385 0012 00BF     		.align	2
 386              	.L39:
 387 0014 6A650040 		.word	1073767786
 388              		.cfi_endproc
 389              	.LFE14:
 390              		.size	SPI_Slave_GetRxBufferSize, .-SPI_Slave_GetRxBufferSize
 391              		.section	.text.SPI_Slave_GetTxBufferSize,"ax",%progbits
 392              		.align	2
 393              		.global	SPI_Slave_GetTxBufferSize
 394              		.thumb
 395              		.thumb_func
 396              		.type	SPI_Slave_GetTxBufferSize, %function
 397              	SPI_Slave_GetTxBufferSize:
 398              	.LFB15:
 761:Generated_Source\PSoC5/SPI_Slave.c **** 
 762:Generated_Source\PSoC5/SPI_Slave.c **** 
 763:Generated_Source\PSoC5/SPI_Slave.c **** /*******************************************************************************
 764:Generated_Source\PSoC5/SPI_Slave.c **** * Function Name: SPI_Slave_GetTxBufferSize
 765:Generated_Source\PSoC5/SPI_Slave.c **** ********************************************************************************
 766:Generated_Source\PSoC5/SPI_Slave.c **** *
 767:Generated_Source\PSoC5/SPI_Slave.c **** * Summary:
 768:Generated_Source\PSoC5/SPI_Slave.c **** *  Returns the number of bytes/words of data currently held in the TX buffer.
 769:Generated_Source\PSoC5/SPI_Slave.c **** *  If TX Software Buffer not used then function return 0 - if FIFO empty, 1 - if
 770:Generated_Source\PSoC5/SPI_Slave.c **** *  FIFO not full, 4 - if FIFO full. In another case function return size of TX
 771:Generated_Source\PSoC5/SPI_Slave.c **** *  Software Buffer.
 772:Generated_Source\PSoC5/SPI_Slave.c **** *
 773:Generated_Source\PSoC5/SPI_Slave.c **** * Parameters:
 774:Generated_Source\PSoC5/SPI_Slave.c **** *  None.
 775:Generated_Source\PSoC5/SPI_Slave.c **** *
 776:Generated_Source\PSoC5/SPI_Slave.c **** * Return:
 777:Generated_Source\PSoC5/SPI_Slave.c **** *  Integer count of the number of bytes/words in the TX buffer.
 778:Generated_Source\PSoC5/SPI_Slave.c **** *
 779:Generated_Source\PSoC5/SPI_Slave.c **** * Global variables:
 780:Generated_Source\PSoC5/SPI_Slave.c **** *  SPI_Slave_txBufferWrite - used for the account of the bytes which
 781:Generated_Source\PSoC5/SPI_Slave.c **** *  have been written down in the TX software buffer.
 782:Generated_Source\PSoC5/SPI_Slave.c **** *  SPI_Slave_txBufferRead - used for the account of the bytes which
 783:Generated_Source\PSoC5/SPI_Slave.c **** *  have been read from the TX software buffer.
 784:Generated_Source\PSoC5/SPI_Slave.c **** *
 785:Generated_Source\PSoC5/SPI_Slave.c **** * Theory:
 786:Generated_Source\PSoC5/SPI_Slave.c **** *  Allows the user to find out how full the TX Buffer is.
 787:Generated_Source\PSoC5/SPI_Slave.c **** *
 788:Generated_Source\PSoC5/SPI_Slave.c **** * Side Effects:
 789:Generated_Source\PSoC5/SPI_Slave.c **** *  Clear status register of the component.
 790:Generated_Source\PSoC5/SPI_Slave.c **** *
 791:Generated_Source\PSoC5/SPI_Slave.c **** *******************************************************************************/
 792:Generated_Source\PSoC5/SPI_Slave.c **** uint8  SPI_Slave_GetTxBufferSize(void) 
 793:Generated_Source\PSoC5/SPI_Slave.c **** {
 399              		.loc 1 793 0
 400              		.cfi_startproc
 401              		@ args = 0, pretend = 0, frame = 0
 402              		@ frame_needed = 0, uses_anonymous_args = 0
 403              		@ link register save eliminated.
 794:Generated_Source\PSoC5/SPI_Slave.c ****     uint8 size;
ARM GAS  C:\Users\LARSHO~1\AppData\Local\Temp\ccO9gOSk.s 			page 22


 795:Generated_Source\PSoC5/SPI_Slave.c **** 
 796:Generated_Source\PSoC5/SPI_Slave.c ****     #if(SPI_Slave_TX_SOFTWARE_BUF_ENABLED)
 797:Generated_Source\PSoC5/SPI_Slave.c **** 
 798:Generated_Source\PSoC5/SPI_Slave.c ****         /* Disable Interrupt to protect variables that could change on interrupt. */
 799:Generated_Source\PSoC5/SPI_Slave.c ****         SPI_Slave_DisableTxInt();
 800:Generated_Source\PSoC5/SPI_Slave.c **** 
 801:Generated_Source\PSoC5/SPI_Slave.c ****         if(SPI_Slave_txBufferRead == SPI_Slave_txBufferWrite)
 802:Generated_Source\PSoC5/SPI_Slave.c ****         {
 803:Generated_Source\PSoC5/SPI_Slave.c ****             size = 0u;
 804:Generated_Source\PSoC5/SPI_Slave.c ****         }
 805:Generated_Source\PSoC5/SPI_Slave.c ****         else if(SPI_Slave_txBufferRead < SPI_Slave_txBufferWrite)
 806:Generated_Source\PSoC5/SPI_Slave.c ****         {
 807:Generated_Source\PSoC5/SPI_Slave.c ****             size = (SPI_Slave_txBufferWrite - SPI_Slave_txBufferRead);
 808:Generated_Source\PSoC5/SPI_Slave.c ****         }
 809:Generated_Source\PSoC5/SPI_Slave.c ****         else
 810:Generated_Source\PSoC5/SPI_Slave.c ****         {
 811:Generated_Source\PSoC5/SPI_Slave.c ****             size = (SPI_Slave_TX_BUFFER_SIZE - SPI_Slave_txBufferRead) + SPI_Slave_txBufferWrite;
 812:Generated_Source\PSoC5/SPI_Slave.c ****         }
 813:Generated_Source\PSoC5/SPI_Slave.c **** 
 814:Generated_Source\PSoC5/SPI_Slave.c ****         /* Enable Interrupt. */
 815:Generated_Source\PSoC5/SPI_Slave.c ****         SPI_Slave_EnableTxInt();
 816:Generated_Source\PSoC5/SPI_Slave.c **** 
 817:Generated_Source\PSoC5/SPI_Slave.c ****     #else /* !SPI_Slave_TX_SOFTWARE_BUF_ENABLED */
 818:Generated_Source\PSoC5/SPI_Slave.c **** 
 819:Generated_Source\PSoC5/SPI_Slave.c ****         size = SPI_Slave_TX_STATUS_REG;
 404              		.loc 1 819 0
 405 0000 074B     		ldr	r3, .L45
 406 0002 1B78     		ldrb	r3, [r3]	@ zero_extendqisi2
 407 0004 DBB2     		uxtb	r3, r3
 408              	.LVL11:
 820:Generated_Source\PSoC5/SPI_Slave.c **** 
 821:Generated_Source\PSoC5/SPI_Slave.c ****         /* Is the fifo is full. */
 822:Generated_Source\PSoC5/SPI_Slave.c ****         if((size & SPI_Slave_STS_TX_FIFO_EMPTY) != 0u)
 409              		.loc 1 822 0
 410 0006 13F0040F 		tst	r3, #4
 411 000a 04D1     		bne	.L43
 823:Generated_Source\PSoC5/SPI_Slave.c ****         {
 824:Generated_Source\PSoC5/SPI_Slave.c ****             size = 0u;
 825:Generated_Source\PSoC5/SPI_Slave.c ****         }
 826:Generated_Source\PSoC5/SPI_Slave.c ****         else if((size & SPI_Slave_STS_TX_FIFO_NOT_FULL) != 0u)
 412              		.loc 1 826 0
 413 000c 13F0020F 		tst	r3, #2
 414 0010 03D0     		beq	.L44
 827:Generated_Source\PSoC5/SPI_Slave.c ****         {
 828:Generated_Source\PSoC5/SPI_Slave.c ****             size = 1u;
 415              		.loc 1 828 0
 416 0012 0120     		movs	r0, #1
 417 0014 7047     		bx	lr
 418              	.L43:
 824:Generated_Source\PSoC5/SPI_Slave.c ****         }
 419              		.loc 1 824 0
 420 0016 0020     		movs	r0, #0
 421 0018 7047     		bx	lr
 422              	.L44:
 829:Generated_Source\PSoC5/SPI_Slave.c ****         }
 830:Generated_Source\PSoC5/SPI_Slave.c ****         else
 831:Generated_Source\PSoC5/SPI_Slave.c ****         {
ARM GAS  C:\Users\LARSHO~1\AppData\Local\Temp\ccO9gOSk.s 			page 23


 832:Generated_Source\PSoC5/SPI_Slave.c ****             size = 4u;
 423              		.loc 1 832 0
 424 001a 0420     		movs	r0, #4
 425              	.LVL12:
 833:Generated_Source\PSoC5/SPI_Slave.c ****         }
 834:Generated_Source\PSoC5/SPI_Slave.c **** 
 835:Generated_Source\PSoC5/SPI_Slave.c ****     #endif /* SPI_Slave_TX_SOFTWARE_BUF_ENABLED */
 836:Generated_Source\PSoC5/SPI_Slave.c **** 
 837:Generated_Source\PSoC5/SPI_Slave.c ****     return (size);
 838:Generated_Source\PSoC5/SPI_Slave.c **** }
 426              		.loc 1 838 0
 427 001c 7047     		bx	lr
 428              	.L46:
 429 001e 00BF     		.align	2
 430              	.L45:
 431 0020 68640040 		.word	1073767528
 432              		.cfi_endproc
 433              	.LFE15:
 434              		.size	SPI_Slave_GetTxBufferSize, .-SPI_Slave_GetTxBufferSize
 435              		.section	.text.SPI_Slave_ClearRxBuffer,"ax",%progbits
 436              		.align	2
 437              		.global	SPI_Slave_ClearRxBuffer
 438              		.thumb
 439              		.thumb_func
 440              		.type	SPI_Slave_ClearRxBuffer, %function
 441              	SPI_Slave_ClearRxBuffer:
 442              	.LFB16:
 839:Generated_Source\PSoC5/SPI_Slave.c **** 
 840:Generated_Source\PSoC5/SPI_Slave.c **** 
 841:Generated_Source\PSoC5/SPI_Slave.c **** /*******************************************************************************
 842:Generated_Source\PSoC5/SPI_Slave.c **** * Function Name: SPI_Slave_ClearRxBuffer
 843:Generated_Source\PSoC5/SPI_Slave.c **** ********************************************************************************
 844:Generated_Source\PSoC5/SPI_Slave.c **** *
 845:Generated_Source\PSoC5/SPI_Slave.c **** * Summary:
 846:Generated_Source\PSoC5/SPI_Slave.c **** *  Clear the RX RAM buffer by setting the read and write pointers both to zero.
 847:Generated_Source\PSoC5/SPI_Slave.c **** *
 848:Generated_Source\PSoC5/SPI_Slave.c **** * Parameters:
 849:Generated_Source\PSoC5/SPI_Slave.c **** *  None.
 850:Generated_Source\PSoC5/SPI_Slave.c **** *
 851:Generated_Source\PSoC5/SPI_Slave.c **** * Return:
 852:Generated_Source\PSoC5/SPI_Slave.c **** *  None.
 853:Generated_Source\PSoC5/SPI_Slave.c **** *
 854:Generated_Source\PSoC5/SPI_Slave.c **** * Global variables:
 855:Generated_Source\PSoC5/SPI_Slave.c **** *  SPI_Slave_rxBufferWrite - used for the account of the bytes which
 856:Generated_Source\PSoC5/SPI_Slave.c **** *  have been written down in the RX software buffer, modified every function
 857:Generated_Source\PSoC5/SPI_Slave.c **** *  call - resets to zero.
 858:Generated_Source\PSoC5/SPI_Slave.c **** *  SPI_Slave_rxBufferRead - used for the account of the bytes which
 859:Generated_Source\PSoC5/SPI_Slave.c **** *  have been read from the RX software buffer, modified every function call -
 860:Generated_Source\PSoC5/SPI_Slave.c **** *  resets to zero.
 861:Generated_Source\PSoC5/SPI_Slave.c **** *
 862:Generated_Source\PSoC5/SPI_Slave.c **** * Theory:
 863:Generated_Source\PSoC5/SPI_Slave.c **** *  Setting the pointers to zero makes the system believe there is no data to
 864:Generated_Source\PSoC5/SPI_Slave.c **** *  read and writing will resume at address 0 overwriting any data that may have
 865:Generated_Source\PSoC5/SPI_Slave.c **** *  remained in the RAM.
 866:Generated_Source\PSoC5/SPI_Slave.c **** *
 867:Generated_Source\PSoC5/SPI_Slave.c **** * Side Effects:
 868:Generated_Source\PSoC5/SPI_Slave.c **** *  Any received data not read from the RAM buffer will be lost when overwritten.
ARM GAS  C:\Users\LARSHO~1\AppData\Local\Temp\ccO9gOSk.s 			page 24


 869:Generated_Source\PSoC5/SPI_Slave.c **** *
 870:Generated_Source\PSoC5/SPI_Slave.c **** * Reentrant:
 871:Generated_Source\PSoC5/SPI_Slave.c **** *  No.
 872:Generated_Source\PSoC5/SPI_Slave.c **** *
 873:Generated_Source\PSoC5/SPI_Slave.c **** *******************************************************************************/
 874:Generated_Source\PSoC5/SPI_Slave.c **** void SPI_Slave_ClearRxBuffer(void) 
 875:Generated_Source\PSoC5/SPI_Slave.c **** {
 443              		.loc 1 875 0
 444              		.cfi_startproc
 445              		@ args = 0, pretend = 0, frame = 0
 446              		@ frame_needed = 0, uses_anonymous_args = 0
 447              		@ link register save eliminated.
 876:Generated_Source\PSoC5/SPI_Slave.c ****     /* Clear Hardware RX FIFO */
 877:Generated_Source\PSoC5/SPI_Slave.c ****     while((SPI_Slave_RX_STATUS_REG & SPI_Slave_STS_RX_FIFO_NOT_EMPTY) != 0u)
 448              		.loc 1 877 0
 449 0000 01E0     		b	.L48
 450              	.L49:
 878:Generated_Source\PSoC5/SPI_Slave.c ****     {
 879:Generated_Source\PSoC5/SPI_Slave.c ****         CY_GET_REG8(SPI_Slave_RXDATA_PTR);
 451              		.loc 1 879 0
 452 0002 044B     		ldr	r3, .L50
 453 0004 1B78     		ldrb	r3, [r3]	@ zero_extendqisi2
 454              	.L48:
 877:Generated_Source\PSoC5/SPI_Slave.c ****     {
 455              		.loc 1 877 0
 456 0006 044B     		ldr	r3, .L50+4
 457 0008 1B78     		ldrb	r3, [r3]	@ zero_extendqisi2
 458 000a 13F0080F 		tst	r3, #8
 459 000e F8D1     		bne	.L49
 880:Generated_Source\PSoC5/SPI_Slave.c ****     }
 881:Generated_Source\PSoC5/SPI_Slave.c **** 
 882:Generated_Source\PSoC5/SPI_Slave.c ****     #if(SPI_Slave_RX_SOFTWARE_BUF_ENABLED)
 883:Generated_Source\PSoC5/SPI_Slave.c **** 
 884:Generated_Source\PSoC5/SPI_Slave.c ****         /* Disable interrupt to protect variables that could change on interrupt. */
 885:Generated_Source\PSoC5/SPI_Slave.c ****         SPI_Slave_DisableRxInt();
 886:Generated_Source\PSoC5/SPI_Slave.c **** 
 887:Generated_Source\PSoC5/SPI_Slave.c ****         SPI_Slave_rxBufferRead  = 0u;
 888:Generated_Source\PSoC5/SPI_Slave.c ****         SPI_Slave_rxBufferWrite = 0u;
 889:Generated_Source\PSoC5/SPI_Slave.c **** 		SPI_Slave_rxBufferFull  = 0u;
 890:Generated_Source\PSoC5/SPI_Slave.c ****         /* Enable interrupt. */
 891:Generated_Source\PSoC5/SPI_Slave.c ****         SPI_Slave_EnableRxInt();
 892:Generated_Source\PSoC5/SPI_Slave.c **** 
 893:Generated_Source\PSoC5/SPI_Slave.c ****     #endif /* SPI_Slave_RX_SOFTWARE_BUF_ENABLED */
 894:Generated_Source\PSoC5/SPI_Slave.c **** }
 460              		.loc 1 894 0
 461 0010 7047     		bx	lr
 462              	.L51:
 463 0012 00BF     		.align	2
 464              	.L50:
 465 0014 58640040 		.word	1073767512
 466 0018 6A650040 		.word	1073767786
 467              		.cfi_endproc
 468              	.LFE16:
 469              		.size	SPI_Slave_ClearRxBuffer, .-SPI_Slave_ClearRxBuffer
 470              		.section	.text.SPI_Slave_ClearTxBuffer,"ax",%progbits
 471              		.align	2
 472              		.global	SPI_Slave_ClearTxBuffer
ARM GAS  C:\Users\LARSHO~1\AppData\Local\Temp\ccO9gOSk.s 			page 25


 473              		.thumb
 474              		.thumb_func
 475              		.type	SPI_Slave_ClearTxBuffer, %function
 476              	SPI_Slave_ClearTxBuffer:
 477              	.LFB17:
 895:Generated_Source\PSoC5/SPI_Slave.c **** 
 896:Generated_Source\PSoC5/SPI_Slave.c **** 
 897:Generated_Source\PSoC5/SPI_Slave.c **** /*******************************************************************************
 898:Generated_Source\PSoC5/SPI_Slave.c **** * Function Name: SPI_Slave_ClearTxBuffer
 899:Generated_Source\PSoC5/SPI_Slave.c **** ********************************************************************************
 900:Generated_Source\PSoC5/SPI_Slave.c **** *
 901:Generated_Source\PSoC5/SPI_Slave.c **** * Summary:
 902:Generated_Source\PSoC5/SPI_Slave.c **** *  Clear the TX RAM buffer by setting the read and write pointers both to zero.
 903:Generated_Source\PSoC5/SPI_Slave.c **** *
 904:Generated_Source\PSoC5/SPI_Slave.c **** * Parameters:
 905:Generated_Source\PSoC5/SPI_Slave.c **** *  None.
 906:Generated_Source\PSoC5/SPI_Slave.c **** *
 907:Generated_Source\PSoC5/SPI_Slave.c **** * Return:
 908:Generated_Source\PSoC5/SPI_Slave.c **** *  None.
 909:Generated_Source\PSoC5/SPI_Slave.c **** *
 910:Generated_Source\PSoC5/SPI_Slave.c **** * Global variables:
 911:Generated_Source\PSoC5/SPI_Slave.c **** *  SPI_Slave_txBufferWrite - used for the account of the bytes which
 912:Generated_Source\PSoC5/SPI_Slave.c **** *  have been written down in the TX software buffer, modified every function
 913:Generated_Source\PSoC5/SPI_Slave.c **** *  call - resets to zero.
 914:Generated_Source\PSoC5/SPI_Slave.c **** *  SPI_Slave_txBufferRead - used for the account of the bytes which
 915:Generated_Source\PSoC5/SPI_Slave.c **** *  have been read from the TX software buffer, modified every function call -
 916:Generated_Source\PSoC5/SPI_Slave.c **** *  resets to zero.
 917:Generated_Source\PSoC5/SPI_Slave.c **** *
 918:Generated_Source\PSoC5/SPI_Slave.c **** * Theory:
 919:Generated_Source\PSoC5/SPI_Slave.c **** *  Setting the pointers to zero makes the system believe there is no data to
 920:Generated_Source\PSoC5/SPI_Slave.c **** *  read and writing will resume at address 0 overwriting any data that may have
 921:Generated_Source\PSoC5/SPI_Slave.c **** *  remained in the RAM.
 922:Generated_Source\PSoC5/SPI_Slave.c **** *
 923:Generated_Source\PSoC5/SPI_Slave.c **** * Side Effects:
 924:Generated_Source\PSoC5/SPI_Slave.c **** *  Any data not yet transmitted from the RAM buffer will be lost when
 925:Generated_Source\PSoC5/SPI_Slave.c **** *  overwritten.
 926:Generated_Source\PSoC5/SPI_Slave.c **** *
 927:Generated_Source\PSoC5/SPI_Slave.c **** * Reentrant:
 928:Generated_Source\PSoC5/SPI_Slave.c **** *  No.
 929:Generated_Source\PSoC5/SPI_Slave.c **** *
 930:Generated_Source\PSoC5/SPI_Slave.c **** *******************************************************************************/
 931:Generated_Source\PSoC5/SPI_Slave.c **** void SPI_Slave_ClearTxBuffer(void) 
 932:Generated_Source\PSoC5/SPI_Slave.c **** {
 478              		.loc 1 932 0
 479              		.cfi_startproc
 480              		@ args = 0, pretend = 0, frame = 0
 481              		@ frame_needed = 0, uses_anonymous_args = 0
 482 0000 08B5     		push	{r3, lr}
 483              		.cfi_def_cfa_offset 8
 484              		.cfi_offset 3, -8
 485              		.cfi_offset 14, -4
 933:Generated_Source\PSoC5/SPI_Slave.c ****     uint8 enableInterrupts;
 934:Generated_Source\PSoC5/SPI_Slave.c **** 
 935:Generated_Source\PSoC5/SPI_Slave.c ****     /* Clear Hardware TX FIFO */
 936:Generated_Source\PSoC5/SPI_Slave.c ****     enableInterrupts = CyEnterCriticalSection();
 486              		.loc 1 936 0
 487 0002 FFF7FEFF 		bl	CyEnterCriticalSection
ARM GAS  C:\Users\LARSHO~1\AppData\Local\Temp\ccO9gOSk.s 			page 26


 488              	.LVL13:
 937:Generated_Source\PSoC5/SPI_Slave.c **** 
 938:Generated_Source\PSoC5/SPI_Slave.c ****     #if(SPI_Slave_DATA_WIDTH <= 8u)
 939:Generated_Source\PSoC5/SPI_Slave.c **** 
 940:Generated_Source\PSoC5/SPI_Slave.c ****         /* Clear TX FIFO */
 941:Generated_Source\PSoC5/SPI_Slave.c ****         SPI_Slave_TX_AUX_CONTROL_DP0_REG |= (uint8)SPI_Slave_FIFO_CLR;
 489              		.loc 1 941 0
 490 0006 064B     		ldr	r3, .L54
 491 0008 1A78     		ldrb	r2, [r3]	@ zero_extendqisi2
 492 000a 42F00302 		orr	r2, r2, #3
 493 000e 1A70     		strb	r2, [r3]
 942:Generated_Source\PSoC5/SPI_Slave.c ****         SPI_Slave_TX_AUX_CONTROL_DP0_REG &= (uint8)~SPI_Slave_FIFO_CLR;
 494              		.loc 1 942 0
 495 0010 1A78     		ldrb	r2, [r3]	@ zero_extendqisi2
 496 0012 02F0FC02 		and	r2, r2, #252
 497 0016 1A70     		strb	r2, [r3]
 943:Generated_Source\PSoC5/SPI_Slave.c **** 
 944:Generated_Source\PSoC5/SPI_Slave.c ****     #else
 945:Generated_Source\PSoC5/SPI_Slave.c **** 
 946:Generated_Source\PSoC5/SPI_Slave.c ****         /* Clear TX FIFO */
 947:Generated_Source\PSoC5/SPI_Slave.c ****         SPI_Slave_TX_AUX_CONTROL_DP0_REG |= (uint8)SPI_Slave_FIFO_CLR;
 948:Generated_Source\PSoC5/SPI_Slave.c ****         SPI_Slave_TX_AUX_CONTROL_DP0_REG &= (uint8)~SPI_Slave_FIFO_CLR;
 949:Generated_Source\PSoC5/SPI_Slave.c ****         SPI_Slave_TX_AUX_CONTROL_DP1_REG |= (uint8)SPI_Slave_FIFO_CLR;
 950:Generated_Source\PSoC5/SPI_Slave.c ****         SPI_Slave_TX_AUX_CONTROL_DP1_REG &= (uint8)~SPI_Slave_FIFO_CLR;
 951:Generated_Source\PSoC5/SPI_Slave.c **** 
 952:Generated_Source\PSoC5/SPI_Slave.c ****     #endif /* SPI_Slave_DATA_WIDTH > 8u */
 953:Generated_Source\PSoC5/SPI_Slave.c **** 
 954:Generated_Source\PSoC5/SPI_Slave.c ****     CyExitCriticalSection(enableInterrupts);
 498              		.loc 1 954 0
 499 0018 FFF7FEFF 		bl	CyExitCriticalSection
 500              	.LVL14:
 501 001c 08BD     		pop	{r3, pc}
 502              	.L55:
 503 001e 00BF     		.align	2
 504              	.L54:
 505 0020 98640040 		.word	1073767576
 506              		.cfi_endproc
 507              	.LFE17:
 508              		.size	SPI_Slave_ClearTxBuffer, .-SPI_Slave_ClearTxBuffer
 509              		.section	.text.SPI_Slave_PutArray,"ax",%progbits
 510              		.align	2
 511              		.global	SPI_Slave_PutArray
 512              		.thumb
 513              		.thumb_func
 514              		.type	SPI_Slave_PutArray, %function
 515              	SPI_Slave_PutArray:
 516              	.LFB18:
 955:Generated_Source\PSoC5/SPI_Slave.c **** 
 956:Generated_Source\PSoC5/SPI_Slave.c ****     #if(SPI_Slave_TX_SOFTWARE_BUF_ENABLED)
 957:Generated_Source\PSoC5/SPI_Slave.c **** 
 958:Generated_Source\PSoC5/SPI_Slave.c ****         /* Disable Interrupt to protect variables that could change on interrupt. */
 959:Generated_Source\PSoC5/SPI_Slave.c ****         SPI_Slave_DisableTxInt();
 960:Generated_Source\PSoC5/SPI_Slave.c **** 
 961:Generated_Source\PSoC5/SPI_Slave.c ****         SPI_Slave_txBufferRead  = 0u;
 962:Generated_Source\PSoC5/SPI_Slave.c ****         SPI_Slave_txBufferWrite = 0u;
 963:Generated_Source\PSoC5/SPI_Slave.c **** 		SPI_Slave_txBufferFull  = 0u;
 964:Generated_Source\PSoC5/SPI_Slave.c **** 		
ARM GAS  C:\Users\LARSHO~1\AppData\Local\Temp\ccO9gOSk.s 			page 27


 965:Generated_Source\PSoC5/SPI_Slave.c ****         /* If Buffer is empty then disable TX FIFO status interrupt */
 966:Generated_Source\PSoC5/SPI_Slave.c ****         SPI_Slave_TX_STATUS_MASK_REG &= (uint8)~SPI_Slave_STS_TX_FIFO_NOT_FULL;
 967:Generated_Source\PSoC5/SPI_Slave.c **** 
 968:Generated_Source\PSoC5/SPI_Slave.c ****         /* Enable Interrupt. */
 969:Generated_Source\PSoC5/SPI_Slave.c ****         SPI_Slave_EnableTxInt();
 970:Generated_Source\PSoC5/SPI_Slave.c **** 
 971:Generated_Source\PSoC5/SPI_Slave.c ****     #endif /* SPI_Slave_TX_SOFTWARE_BUF_ENABLED */
 972:Generated_Source\PSoC5/SPI_Slave.c **** }
 973:Generated_Source\PSoC5/SPI_Slave.c **** 
 974:Generated_Source\PSoC5/SPI_Slave.c **** 
 975:Generated_Source\PSoC5/SPI_Slave.c **** #if (SPI_Slave_BIDIRECTIONAL_MODE != 0u)
 976:Generated_Source\PSoC5/SPI_Slave.c **** 
 977:Generated_Source\PSoC5/SPI_Slave.c ****     /*******************************************************************************
 978:Generated_Source\PSoC5/SPI_Slave.c ****     * Function Name: SPI_Slave_TxEnable
 979:Generated_Source\PSoC5/SPI_Slave.c ****     ********************************************************************************
 980:Generated_Source\PSoC5/SPI_Slave.c ****     *
 981:Generated_Source\PSoC5/SPI_Slave.c ****     * Summary:
 982:Generated_Source\PSoC5/SPI_Slave.c ****     *  If the SPI Slave is configured to use a single bi-directional pin then this
 983:Generated_Source\PSoC5/SPI_Slave.c ****     *  will set the bi-directional pin to transmit.
 984:Generated_Source\PSoC5/SPI_Slave.c ****     *
 985:Generated_Source\PSoC5/SPI_Slave.c ****     * Parameters:
 986:Generated_Source\PSoC5/SPI_Slave.c ****     *  None.
 987:Generated_Source\PSoC5/SPI_Slave.c ****     *
 988:Generated_Source\PSoC5/SPI_Slave.c ****     * Return:
 989:Generated_Source\PSoC5/SPI_Slave.c ****     *  None.
 990:Generated_Source\PSoC5/SPI_Slave.c ****     *
 991:Generated_Source\PSoC5/SPI_Slave.c ****     *******************************************************************************/
 992:Generated_Source\PSoC5/SPI_Slave.c ****     void SPI_Slave_TxEnable(void) 
 993:Generated_Source\PSoC5/SPI_Slave.c ****     {
 994:Generated_Source\PSoC5/SPI_Slave.c ****             SPI_Slave_CONTROL_REG |= SPI_Slave_CTRL_TX_SIGNAL_EN;
 995:Generated_Source\PSoC5/SPI_Slave.c ****     }
 996:Generated_Source\PSoC5/SPI_Slave.c **** 
 997:Generated_Source\PSoC5/SPI_Slave.c **** 
 998:Generated_Source\PSoC5/SPI_Slave.c ****     /*******************************************************************************
 999:Generated_Source\PSoC5/SPI_Slave.c ****     * Function Name: SPI_Slave_TxDisable
1000:Generated_Source\PSoC5/SPI_Slave.c ****     ********************************************************************************
1001:Generated_Source\PSoC5/SPI_Slave.c ****     *
1002:Generated_Source\PSoC5/SPI_Slave.c ****     * Summary:
1003:Generated_Source\PSoC5/SPI_Slave.c ****     *  If the SPI Slave is configured to use a single bi-directional pin then this
1004:Generated_Source\PSoC5/SPI_Slave.c ****     *  will set the bi-directional pin to receive.
1005:Generated_Source\PSoC5/SPI_Slave.c ****     *
1006:Generated_Source\PSoC5/SPI_Slave.c ****     * Parameters:
1007:Generated_Source\PSoC5/SPI_Slave.c ****     *  None.
1008:Generated_Source\PSoC5/SPI_Slave.c ****     *
1009:Generated_Source\PSoC5/SPI_Slave.c ****     * Return:
1010:Generated_Source\PSoC5/SPI_Slave.c ****     *  None.
1011:Generated_Source\PSoC5/SPI_Slave.c ****     *
1012:Generated_Source\PSoC5/SPI_Slave.c ****     *******************************************************************************/
1013:Generated_Source\PSoC5/SPI_Slave.c ****     void SPI_Slave_TxDisable(void) 
1014:Generated_Source\PSoC5/SPI_Slave.c ****     {
1015:Generated_Source\PSoC5/SPI_Slave.c ****             SPI_Slave_CONTROL_REG &= (uint8)~SPI_Slave_CTRL_TX_SIGNAL_EN;
1016:Generated_Source\PSoC5/SPI_Slave.c ****     }
1017:Generated_Source\PSoC5/SPI_Slave.c **** 
1018:Generated_Source\PSoC5/SPI_Slave.c **** #endif /* SPI_Slave_BIDIRECTIONAL_MODE != 0u */
1019:Generated_Source\PSoC5/SPI_Slave.c **** 
1020:Generated_Source\PSoC5/SPI_Slave.c **** 
1021:Generated_Source\PSoC5/SPI_Slave.c **** /*******************************************************************************
ARM GAS  C:\Users\LARSHO~1\AppData\Local\Temp\ccO9gOSk.s 			page 28


1022:Generated_Source\PSoC5/SPI_Slave.c **** * Function Name: SPI_Slave_PutArray
1023:Generated_Source\PSoC5/SPI_Slave.c **** ********************************************************************************
1024:Generated_Source\PSoC5/SPI_Slave.c **** *
1025:Generated_Source\PSoC5/SPI_Slave.c **** * Summary:
1026:Generated_Source\PSoC5/SPI_Slave.c **** *  Write available data from RAM/ROM to the TX buffer while space is available
1027:Generated_Source\PSoC5/SPI_Slave.c **** *  in the TX buffer. Keep trying until all data is passed to the TX buffer. If
1028:Generated_Source\PSoC5/SPI_Slave.c **** *  used Mode 00 or 01 before PutArray() function should be called
1029:Generated_Source\PSoC5/SPI_Slave.c **** *  WriteTxDataZero() function.
1030:Generated_Source\PSoC5/SPI_Slave.c **** *
1031:Generated_Source\PSoC5/SPI_Slave.c **** * Parameters:
1032:Generated_Source\PSoC5/SPI_Slave.c **** *  *buffer: Pointer to the location in RAM containing the data to send
1033:Generated_Source\PSoC5/SPI_Slave.c **** *  byteCount: The number of bytes to move to the transmit buffer.
1034:Generated_Source\PSoC5/SPI_Slave.c **** *
1035:Generated_Source\PSoC5/SPI_Slave.c **** * Return:
1036:Generated_Source\PSoC5/SPI_Slave.c **** *  None.
1037:Generated_Source\PSoC5/SPI_Slave.c **** *
1038:Generated_Source\PSoC5/SPI_Slave.c **** * Side Effects:
1039:Generated_Source\PSoC5/SPI_Slave.c **** *  Will stay in this routine until all data has been sent.  May get locked in
1040:Generated_Source\PSoC5/SPI_Slave.c **** *  this loop if data is not being initiated by the master if there is not
1041:Generated_Source\PSoC5/SPI_Slave.c **** *  enough room in the TX FIFO.
1042:Generated_Source\PSoC5/SPI_Slave.c **** *
1043:Generated_Source\PSoC5/SPI_Slave.c **** * Reentrant:
1044:Generated_Source\PSoC5/SPI_Slave.c **** *  No.
1045:Generated_Source\PSoC5/SPI_Slave.c **** *
1046:Generated_Source\PSoC5/SPI_Slave.c **** *******************************************************************************/
1047:Generated_Source\PSoC5/SPI_Slave.c **** void SPI_Slave_PutArray(const uint8 buffer[], uint8 byteCount)
1048:Generated_Source\PSoC5/SPI_Slave.c ****                                                                     
1049:Generated_Source\PSoC5/SPI_Slave.c **** {
 517              		.loc 1 1049 0
 518              		.cfi_startproc
 519              		@ args = 0, pretend = 0, frame = 0
 520              		@ frame_needed = 0, uses_anonymous_args = 0
 521              	.LVL15:
 522 0000 70B5     		push	{r4, r5, r6, lr}
 523              		.cfi_def_cfa_offset 16
 524              		.cfi_offset 4, -16
 525              		.cfi_offset 5, -12
 526              		.cfi_offset 6, -8
 527              		.cfi_offset 14, -4
 528 0002 0646     		mov	r6, r0
 529 0004 0C46     		mov	r4, r1
 530              	.LVL16:
1050:Generated_Source\PSoC5/SPI_Slave.c ****     uint8 bufIndex;
1051:Generated_Source\PSoC5/SPI_Slave.c ****     bufIndex = 0u;
 531              		.loc 1 1051 0
 532 0006 0025     		movs	r5, #0
1052:Generated_Source\PSoC5/SPI_Slave.c **** 
1053:Generated_Source\PSoC5/SPI_Slave.c ****     while(byteCount > 0u)
 533              		.loc 1 1053 0
 534 0008 06E0     		b	.L57
 535              	.LVL17:
 536              	.L58:
1054:Generated_Source\PSoC5/SPI_Slave.c ****     {
1055:Generated_Source\PSoC5/SPI_Slave.c ****         SPI_Slave_WriteTxData(buffer[bufIndex]);
 537              		.loc 1 1055 0
 538 000a 705D     		ldrb	r0, [r6, r5]	@ zero_extendqisi2
 539 000c FFF7FEFF 		bl	SPI_Slave_WriteTxData
ARM GAS  C:\Users\LARSHO~1\AppData\Local\Temp\ccO9gOSk.s 			page 29


 540              	.LVL18:
1056:Generated_Source\PSoC5/SPI_Slave.c ****         bufIndex++;
 541              		.loc 1 1056 0
 542 0010 0135     		adds	r5, r5, #1
 543              	.LVL19:
 544 0012 EDB2     		uxtb	r5, r5
 545              	.LVL20:
1057:Generated_Source\PSoC5/SPI_Slave.c ****         byteCount--;
 546              		.loc 1 1057 0
 547 0014 013C     		subs	r4, r4, #1
 548              	.LVL21:
 549 0016 E4B2     		uxtb	r4, r4
 550              	.LVL22:
 551              	.L57:
1053:Generated_Source\PSoC5/SPI_Slave.c ****     {
 552              		.loc 1 1053 0
 553 0018 002C     		cmp	r4, #0
 554 001a F6D1     		bne	.L58
1058:Generated_Source\PSoC5/SPI_Slave.c ****     }
1059:Generated_Source\PSoC5/SPI_Slave.c **** }
 555              		.loc 1 1059 0
 556 001c 70BD     		pop	{r4, r5, r6, pc}
 557              		.cfi_endproc
 558              	.LFE18:
 559              		.size	SPI_Slave_PutArray, .-SPI_Slave_PutArray
 560 001e 00BF     		.section	.text.SPI_Slave_ClearFIFO,"ax",%progbits
 561              		.align	2
 562              		.global	SPI_Slave_ClearFIFO
 563              		.thumb
 564              		.thumb_func
 565              		.type	SPI_Slave_ClearFIFO, %function
 566              	SPI_Slave_ClearFIFO:
 567              	.LFB19:
1060:Generated_Source\PSoC5/SPI_Slave.c **** 
1061:Generated_Source\PSoC5/SPI_Slave.c **** 
1062:Generated_Source\PSoC5/SPI_Slave.c **** /*******************************************************************************
1063:Generated_Source\PSoC5/SPI_Slave.c **** * Function Name: SPI_Slave_ClearFIFO
1064:Generated_Source\PSoC5/SPI_Slave.c **** ********************************************************************************
1065:Generated_Source\PSoC5/SPI_Slave.c **** *
1066:Generated_Source\PSoC5/SPI_Slave.c **** * Summary:
1067:Generated_Source\PSoC5/SPI_Slave.c **** *  Clear the RX and TX FIFO's of all data for a fresh start.
1068:Generated_Source\PSoC5/SPI_Slave.c **** *
1069:Generated_Source\PSoC5/SPI_Slave.c **** * Parameters:
1070:Generated_Source\PSoC5/SPI_Slave.c **** *  None.
1071:Generated_Source\PSoC5/SPI_Slave.c **** *
1072:Generated_Source\PSoC5/SPI_Slave.c **** * Return:
1073:Generated_Source\PSoC5/SPI_Slave.c **** *  None.
1074:Generated_Source\PSoC5/SPI_Slave.c **** *
1075:Generated_Source\PSoC5/SPI_Slave.c **** * Side Effects:
1076:Generated_Source\PSoC5/SPI_Slave.c **** *  Clear status register of the component.
1077:Generated_Source\PSoC5/SPI_Slave.c **** *
1078:Generated_Source\PSoC5/SPI_Slave.c **** *******************************************************************************/
1079:Generated_Source\PSoC5/SPI_Slave.c **** void SPI_Slave_ClearFIFO(void) 
1080:Generated_Source\PSoC5/SPI_Slave.c **** {
 568              		.loc 1 1080 0
 569              		.cfi_startproc
 570              		@ args = 0, pretend = 0, frame = 0
ARM GAS  C:\Users\LARSHO~1\AppData\Local\Temp\ccO9gOSk.s 			page 30


 571              		@ frame_needed = 0, uses_anonymous_args = 0
 572 0000 08B5     		push	{r3, lr}
 573              		.cfi_def_cfa_offset 8
 574              		.cfi_offset 3, -8
 575              		.cfi_offset 14, -4
1081:Generated_Source\PSoC5/SPI_Slave.c ****     uint8 enableInterrupts;
1082:Generated_Source\PSoC5/SPI_Slave.c **** 
1083:Generated_Source\PSoC5/SPI_Slave.c ****     while((SPI_Slave_RX_STATUS_REG & SPI_Slave_STS_RX_FIFO_NOT_EMPTY) != 0u)
 576              		.loc 1 1083 0
 577 0002 01E0     		b	.L61
 578              	.L62:
1084:Generated_Source\PSoC5/SPI_Slave.c ****     {
1085:Generated_Source\PSoC5/SPI_Slave.c ****         CY_GET_REG8(SPI_Slave_RXDATA_PTR);
 579              		.loc 1 1085 0
 580 0004 0A4B     		ldr	r3, .L64
 581 0006 1B78     		ldrb	r3, [r3]	@ zero_extendqisi2
 582              	.L61:
1083:Generated_Source\PSoC5/SPI_Slave.c ****     {
 583              		.loc 1 1083 0
 584 0008 0A4B     		ldr	r3, .L64+4
 585 000a 1B78     		ldrb	r3, [r3]	@ zero_extendqisi2
 586 000c 13F0080F 		tst	r3, #8
 587 0010 F8D1     		bne	.L62
1086:Generated_Source\PSoC5/SPI_Slave.c ****     }
1087:Generated_Source\PSoC5/SPI_Slave.c **** 
1088:Generated_Source\PSoC5/SPI_Slave.c ****     enableInterrupts = CyEnterCriticalSection();
 588              		.loc 1 1088 0
 589 0012 FFF7FEFF 		bl	CyEnterCriticalSection
 590              	.LVL23:
1089:Generated_Source\PSoC5/SPI_Slave.c **** 
1090:Generated_Source\PSoC5/SPI_Slave.c ****     #if(SPI_Slave_DATA_WIDTH <= 8u)
1091:Generated_Source\PSoC5/SPI_Slave.c **** 
1092:Generated_Source\PSoC5/SPI_Slave.c ****         /* Clear TX FIFO */
1093:Generated_Source\PSoC5/SPI_Slave.c ****         SPI_Slave_TX_AUX_CONTROL_DP0_REG |= (uint8)SPI_Slave_FIFO_CLR;
 591              		.loc 1 1093 0
 592 0016 084B     		ldr	r3, .L64+8
 593 0018 1A78     		ldrb	r2, [r3]	@ zero_extendqisi2
 594 001a 42F00302 		orr	r2, r2, #3
 595 001e 1A70     		strb	r2, [r3]
1094:Generated_Source\PSoC5/SPI_Slave.c ****         SPI_Slave_TX_AUX_CONTROL_DP0_REG &= (uint8)~SPI_Slave_FIFO_CLR;
 596              		.loc 1 1094 0
 597 0020 1A78     		ldrb	r2, [r3]	@ zero_extendqisi2
 598 0022 02F0FC02 		and	r2, r2, #252
 599 0026 1A70     		strb	r2, [r3]
1095:Generated_Source\PSoC5/SPI_Slave.c **** 
1096:Generated_Source\PSoC5/SPI_Slave.c ****     #else
1097:Generated_Source\PSoC5/SPI_Slave.c **** 
1098:Generated_Source\PSoC5/SPI_Slave.c ****         /* Clear TX FIFO */
1099:Generated_Source\PSoC5/SPI_Slave.c ****         SPI_Slave_TX_AUX_CONTROL_DP0_REG |= (uint8)SPI_Slave_FIFO_CLR;
1100:Generated_Source\PSoC5/SPI_Slave.c ****         SPI_Slave_TX_AUX_CONTROL_DP0_REG &= (uint8)~SPI_Slave_FIFO_CLR;
1101:Generated_Source\PSoC5/SPI_Slave.c ****         SPI_Slave_TX_AUX_CONTROL_DP1_REG |= (uint8)SPI_Slave_FIFO_CLR;
1102:Generated_Source\PSoC5/SPI_Slave.c ****         SPI_Slave_TX_AUX_CONTROL_DP1_REG &= (uint8)~SPI_Slave_FIFO_CLR;
1103:Generated_Source\PSoC5/SPI_Slave.c **** 
1104:Generated_Source\PSoC5/SPI_Slave.c ****     #endif /* SPI_Slave_DATA_WIDTH <= 8u */
1105:Generated_Source\PSoC5/SPI_Slave.c **** 
1106:Generated_Source\PSoC5/SPI_Slave.c ****     CyExitCriticalSection(enableInterrupts);
 600              		.loc 1 1106 0
ARM GAS  C:\Users\LARSHO~1\AppData\Local\Temp\ccO9gOSk.s 			page 31


 601 0028 FFF7FEFF 		bl	CyExitCriticalSection
 602              	.LVL24:
 603 002c 08BD     		pop	{r3, pc}
 604              	.L65:
 605 002e 00BF     		.align	2
 606              	.L64:
 607 0030 58640040 		.word	1073767512
 608 0034 6A650040 		.word	1073767786
 609 0038 98640040 		.word	1073767576
 610              		.cfi_endproc
 611              	.LFE19:
 612              		.size	SPI_Slave_ClearFIFO, .-SPI_Slave_ClearFIFO
 613              		.section	.text.SPI_Slave_Init,"ax",%progbits
 614              		.align	2
 615              		.global	SPI_Slave_Init
 616              		.thumb
 617              		.thumb_func
 618              		.type	SPI_Slave_Init, %function
 619              	SPI_Slave_Init:
 620              	.LFB0:
  68:Generated_Source\PSoC5/SPI_Slave.c ****     /*Initialize the Bit counter */
 621              		.loc 1 68 0
 622              		.cfi_startproc
 623              		@ args = 0, pretend = 0, frame = 0
 624              		@ frame_needed = 0, uses_anonymous_args = 0
 625 0000 38B5     		push	{r3, r4, r5, lr}
 626              		.cfi_def_cfa_offset 16
 627              		.cfi_offset 3, -16
 628              		.cfi_offset 4, -12
 629              		.cfi_offset 5, -8
 630              		.cfi_offset 14, -4
  70:Generated_Source\PSoC5/SPI_Slave.c **** 
 631              		.loc 1 70 0
 632 0002 0725     		movs	r5, #7
 633 0004 0C4B     		ldr	r3, .L68
 634 0006 1D70     		strb	r5, [r3]
  87:Generated_Source\PSoC5/SPI_Slave.c **** 
 635              		.loc 1 87 0
 636 0008 0824     		movs	r4, #8
 637 000a 0C4B     		ldr	r3, .L68+4
 638 000c 1C60     		str	r4, [r3]
  90:Generated_Source\PSoC5/SPI_Slave.c **** 
 639              		.loc 1 90 0
 640 000e 0C49     		ldr	r1, .L68+8
 641 0010 0320     		movs	r0, #3
 642 0012 FFF7FEFF 		bl	CyIntSetVector
 643              	.LVL25:
  93:Generated_Source\PSoC5/SPI_Slave.c **** 
 644              		.loc 1 93 0
 645 0016 2946     		mov	r1, r5
 646 0018 0320     		movs	r0, #3
 647 001a FFF7FEFF 		bl	CyIntSetPriority
 648              	.LVL26:
  98:Generated_Source\PSoC5/SPI_Slave.c **** 
 649              		.loc 1 98 0
 650 001e FFF7FEFF 		bl	SPI_Slave_ClearFIFO
 651              	.LVL27:
ARM GAS  C:\Users\LARSHO~1\AppData\Local\Temp\ccO9gOSk.s 			page 32


 112:Generated_Source\PSoC5/SPI_Slave.c ****     (void) SPI_Slave_ReadRxStatus(); /* Clear any pending status bits */
 652              		.loc 1 112 0
 653 0022 FFF7FEFF 		bl	SPI_Slave_ReadTxStatus
 654              	.LVL28:
 113:Generated_Source\PSoC5/SPI_Slave.c **** 
 655              		.loc 1 113 0
 656 0026 FFF7FEFF 		bl	SPI_Slave_ReadRxStatus
 657              	.LVL29:
 121:Generated_Source\PSoC5/SPI_Slave.c ****     #endif /* SPI_Slave_TX_SOFTWARE_BUF_ENABLED */
 658              		.loc 1 121 0
 659 002a 0022     		movs	r2, #0
 660 002c 054B     		ldr	r3, .L68+12
 661 002e 1A70     		strb	r2, [r3]
 124:Generated_Source\PSoC5/SPI_Slave.c **** }
 662              		.loc 1 124 0
 663 0030 03F58173 		add	r3, r3, #258
 664 0034 1C70     		strb	r4, [r3]
 665 0036 38BD     		pop	{r3, r4, r5, pc}
 666              	.L69:
 667              		.align	2
 668              	.L68:
 669 0038 88650040 		.word	1073767816
 670 003c 80E100E0 		.word	-536813184
 671 0040 00000000 		.word	SPI_Slave_RX_ISR
 672 0044 88640040 		.word	1073767560
 673              		.cfi_endproc
 674              	.LFE0:
 675              		.size	SPI_Slave_Init, .-SPI_Slave_Init
 676              		.section	.text.SPI_Slave_Start,"ax",%progbits
 677              		.align	2
 678              		.global	SPI_Slave_Start
 679              		.thumb
 680              		.thumb_func
 681              		.type	SPI_Slave_Start, %function
 682              	SPI_Slave_Start:
 683              	.LFB2:
 188:Generated_Source\PSoC5/SPI_Slave.c ****     if(SPI_Slave_initVar == 0u)
 684              		.loc 1 188 0
 685              		.cfi_startproc
 686              		@ args = 0, pretend = 0, frame = 0
 687              		@ frame_needed = 0, uses_anonymous_args = 0
 688 0000 08B5     		push	{r3, lr}
 689              		.cfi_def_cfa_offset 8
 690              		.cfi_offset 3, -8
 691              		.cfi_offset 14, -4
 189:Generated_Source\PSoC5/SPI_Slave.c ****     {
 692              		.loc 1 189 0
 693 0002 054B     		ldr	r3, .L73
 694 0004 1B78     		ldrb	r3, [r3]	@ zero_extendqisi2
 695 0006 23B9     		cbnz	r3, .L71
 191:Generated_Source\PSoC5/SPI_Slave.c ****         SPI_Slave_initVar = 1u;
 696              		.loc 1 191 0
 697 0008 FFF7FEFF 		bl	SPI_Slave_Init
 698              	.LVL30:
 192:Generated_Source\PSoC5/SPI_Slave.c ****     }
 699              		.loc 1 192 0
 700 000c 0122     		movs	r2, #1
ARM GAS  C:\Users\LARSHO~1\AppData\Local\Temp\ccO9gOSk.s 			page 33


 701 000e 024B     		ldr	r3, .L73
 702 0010 1A70     		strb	r2, [r3]
 703              	.L71:
 195:Generated_Source\PSoC5/SPI_Slave.c **** }
 704              		.loc 1 195 0
 705 0012 FFF7FEFF 		bl	SPI_Slave_Enable
 706              	.LVL31:
 707 0016 08BD     		pop	{r3, pc}
 708              	.L74:
 709              		.align	2
 710              	.L73:
 711 0018 00000000 		.word	.LANCHOR0
 712              		.cfi_endproc
 713              	.LFE2:
 714              		.size	SPI_Slave_Start, .-SPI_Slave_Start
 715              		.section	.text.SPI_Slave_EnableInt,"ax",%progbits
 716              		.align	2
 717              		.global	SPI_Slave_EnableInt
 718              		.thumb
 719              		.thumb_func
 720              		.type	SPI_Slave_EnableInt, %function
 721              	SPI_Slave_EnableInt:
 722              	.LFB20:
1107:Generated_Source\PSoC5/SPI_Slave.c **** }
1108:Generated_Source\PSoC5/SPI_Slave.c **** 
1109:Generated_Source\PSoC5/SPI_Slave.c **** 
1110:Generated_Source\PSoC5/SPI_Slave.c **** /* Following functions are for version Compatibility, they are obsolete.
1111:Generated_Source\PSoC5/SPI_Slave.c **** *  Please do not use it in new projects.
1112:Generated_Source\PSoC5/SPI_Slave.c **** */
1113:Generated_Source\PSoC5/SPI_Slave.c **** 
1114:Generated_Source\PSoC5/SPI_Slave.c **** 
1115:Generated_Source\PSoC5/SPI_Slave.c **** /*******************************************************************************
1116:Generated_Source\PSoC5/SPI_Slave.c **** * Function Name: SPI_Slave_EnableInt
1117:Generated_Source\PSoC5/SPI_Slave.c **** ********************************************************************************
1118:Generated_Source\PSoC5/SPI_Slave.c **** *
1119:Generated_Source\PSoC5/SPI_Slave.c **** * Summary:
1120:Generated_Source\PSoC5/SPI_Slave.c **** *  Enable internal interrupt generation.
1121:Generated_Source\PSoC5/SPI_Slave.c **** *
1122:Generated_Source\PSoC5/SPI_Slave.c **** * Parameters:
1123:Generated_Source\PSoC5/SPI_Slave.c **** *  None.
1124:Generated_Source\PSoC5/SPI_Slave.c **** *
1125:Generated_Source\PSoC5/SPI_Slave.c **** * Return:
1126:Generated_Source\PSoC5/SPI_Slave.c **** *  None.
1127:Generated_Source\PSoC5/SPI_Slave.c **** *
1128:Generated_Source\PSoC5/SPI_Slave.c **** * Theory:
1129:Generated_Source\PSoC5/SPI_Slave.c **** *  Enable the internal interrupt output -or- the interrupt component itself.
1130:Generated_Source\PSoC5/SPI_Slave.c **** *
1131:Generated_Source\PSoC5/SPI_Slave.c **** *******************************************************************************/
1132:Generated_Source\PSoC5/SPI_Slave.c **** void SPI_Slave_EnableInt(void) 
1133:Generated_Source\PSoC5/SPI_Slave.c **** {
 723              		.loc 1 1133 0
 724              		.cfi_startproc
 725              		@ args = 0, pretend = 0, frame = 0
 726              		@ frame_needed = 0, uses_anonymous_args = 0
 727              		@ link register save eliminated.
1134:Generated_Source\PSoC5/SPI_Slave.c ****     #if(SPI_Slave_INTERNAL_TX_INT_ENABLED)
1135:Generated_Source\PSoC5/SPI_Slave.c ****         CyIntEnable(SPI_Slave_TX_ISR_NUMBER);
ARM GAS  C:\Users\LARSHO~1\AppData\Local\Temp\ccO9gOSk.s 			page 34


1136:Generated_Source\PSoC5/SPI_Slave.c ****     #endif /* SPI_Slave_INTERNAL_TX_INT_ENABLED */
1137:Generated_Source\PSoC5/SPI_Slave.c **** 
1138:Generated_Source\PSoC5/SPI_Slave.c ****     #if(SPI_Slave_INTERNAL_RX_INT_ENABLED)
1139:Generated_Source\PSoC5/SPI_Slave.c ****         CyIntEnable(SPI_Slave_RX_ISR_NUMBER);
 728              		.loc 1 1139 0
 729 0000 0822     		movs	r2, #8
 730 0002 014B     		ldr	r3, .L76
 731 0004 1A60     		str	r2, [r3]
 732 0006 7047     		bx	lr
 733              	.L77:
 734              		.align	2
 735              	.L76:
 736 0008 00E100E0 		.word	-536813312
 737              		.cfi_endproc
 738              	.LFE20:
 739              		.size	SPI_Slave_EnableInt, .-SPI_Slave_EnableInt
 740              		.section	.text.SPI_Slave_DisableInt,"ax",%progbits
 741              		.align	2
 742              		.global	SPI_Slave_DisableInt
 743              		.thumb
 744              		.thumb_func
 745              		.type	SPI_Slave_DisableInt, %function
 746              	SPI_Slave_DisableInt:
 747              	.LFB21:
1140:Generated_Source\PSoC5/SPI_Slave.c ****     #endif /* SPI_Slave_INTERNAL_RX_INT_ENABLED */
1141:Generated_Source\PSoC5/SPI_Slave.c **** }
1142:Generated_Source\PSoC5/SPI_Slave.c **** 
1143:Generated_Source\PSoC5/SPI_Slave.c **** 
1144:Generated_Source\PSoC5/SPI_Slave.c **** /*******************************************************************************
1145:Generated_Source\PSoC5/SPI_Slave.c **** * Function Name: SPI_Slave_DisableInt
1146:Generated_Source\PSoC5/SPI_Slave.c **** ********************************************************************************
1147:Generated_Source\PSoC5/SPI_Slave.c **** *
1148:Generated_Source\PSoC5/SPI_Slave.c **** * Summary:
1149:Generated_Source\PSoC5/SPI_Slave.c **** *  Disable internal interrupt generation.
1150:Generated_Source\PSoC5/SPI_Slave.c **** *
1151:Generated_Source\PSoC5/SPI_Slave.c **** * Parameters:
1152:Generated_Source\PSoC5/SPI_Slave.c **** *  None.
1153:Generated_Source\PSoC5/SPI_Slave.c **** *
1154:Generated_Source\PSoC5/SPI_Slave.c **** * Return:
1155:Generated_Source\PSoC5/SPI_Slave.c **** *  None.
1156:Generated_Source\PSoC5/SPI_Slave.c **** *
1157:Generated_Source\PSoC5/SPI_Slave.c **** * Theory:
1158:Generated_Source\PSoC5/SPI_Slave.c **** *  Disable the internal interrupt output -or- the interrupt component itself.
1159:Generated_Source\PSoC5/SPI_Slave.c **** *
1160:Generated_Source\PSoC5/SPI_Slave.c **** *******************************************************************************/
1161:Generated_Source\PSoC5/SPI_Slave.c **** void SPI_Slave_DisableInt(void) 
1162:Generated_Source\PSoC5/SPI_Slave.c **** {
 748              		.loc 1 1162 0
 749              		.cfi_startproc
 750              		@ args = 0, pretend = 0, frame = 0
 751              		@ frame_needed = 0, uses_anonymous_args = 0
 752              		@ link register save eliminated.
1163:Generated_Source\PSoC5/SPI_Slave.c ****     #if(SPI_Slave_INTERNAL_TX_INT_ENABLED)
1164:Generated_Source\PSoC5/SPI_Slave.c ****         CyIntDisable(SPI_Slave_TX_ISR_NUMBER);
1165:Generated_Source\PSoC5/SPI_Slave.c ****     #endif /* SPI_Slave_INTERNAL_TX_INT_ENABLED */
1166:Generated_Source\PSoC5/SPI_Slave.c **** 
1167:Generated_Source\PSoC5/SPI_Slave.c ****     #if(SPI_Slave_INTERNAL_RX_INT_ENABLED)
ARM GAS  C:\Users\LARSHO~1\AppData\Local\Temp\ccO9gOSk.s 			page 35


1168:Generated_Source\PSoC5/SPI_Slave.c ****         CyIntDisable(SPI_Slave_RX_ISR_NUMBER);
 753              		.loc 1 1168 0
 754 0000 0822     		movs	r2, #8
 755 0002 014B     		ldr	r3, .L79
 756 0004 1A60     		str	r2, [r3]
 757 0006 7047     		bx	lr
 758              	.L80:
 759              		.align	2
 760              	.L79:
 761 0008 80E100E0 		.word	-536813184
 762              		.cfi_endproc
 763              	.LFE21:
 764              		.size	SPI_Slave_DisableInt, .-SPI_Slave_DisableInt
 765              		.section	.text.SPI_Slave_SetInterruptMode,"ax",%progbits
 766              		.align	2
 767              		.global	SPI_Slave_SetInterruptMode
 768              		.thumb
 769              		.thumb_func
 770              		.type	SPI_Slave_SetInterruptMode, %function
 771              	SPI_Slave_SetInterruptMode:
 772              	.LFB22:
1169:Generated_Source\PSoC5/SPI_Slave.c ****     #endif /* SPI_Slave_INTERNAL_RX_INT_ENABLED */
1170:Generated_Source\PSoC5/SPI_Slave.c **** }
1171:Generated_Source\PSoC5/SPI_Slave.c **** 
1172:Generated_Source\PSoC5/SPI_Slave.c **** 
1173:Generated_Source\PSoC5/SPI_Slave.c **** /*******************************************************************************
1174:Generated_Source\PSoC5/SPI_Slave.c **** * Function Name: SPI_Slave_SetInterruptMode
1175:Generated_Source\PSoC5/SPI_Slave.c **** ********************************************************************************
1176:Generated_Source\PSoC5/SPI_Slave.c **** *
1177:Generated_Source\PSoC5/SPI_Slave.c **** * Summary:
1178:Generated_Source\PSoC5/SPI_Slave.c **** *  Configure which status bits trigger an interrupt event.
1179:Generated_Source\PSoC5/SPI_Slave.c **** *
1180:Generated_Source\PSoC5/SPI_Slave.c **** * Parameters:
1181:Generated_Source\PSoC5/SPI_Slave.c **** *  intSrc: An or'd combination of the desired status bit masks (defined in the
1182:Generated_Source\PSoC5/SPI_Slave.c **** *  header file).
1183:Generated_Source\PSoC5/SPI_Slave.c **** *
1184:Generated_Source\PSoC5/SPI_Slave.c **** * Return:
1185:Generated_Source\PSoC5/SPI_Slave.c **** *  None.
1186:Generated_Source\PSoC5/SPI_Slave.c **** *
1187:Generated_Source\PSoC5/SPI_Slave.c **** * Theory:
1188:Generated_Source\PSoC5/SPI_Slave.c **** *  Enables the output of specific status bits to the interrupt controller.
1189:Generated_Source\PSoC5/SPI_Slave.c **** *
1190:Generated_Source\PSoC5/SPI_Slave.c **** *******************************************************************************/
1191:Generated_Source\PSoC5/SPI_Slave.c **** void SPI_Slave_SetInterruptMode(uint8 intSrc) 
1192:Generated_Source\PSoC5/SPI_Slave.c **** {
 773              		.loc 1 1192 0
 774              		.cfi_startproc
 775              		@ args = 0, pretend = 0, frame = 0
 776              		@ frame_needed = 0, uses_anonymous_args = 0
 777              		@ link register save eliminated.
 778              	.LVL32:
1193:Generated_Source\PSoC5/SPI_Slave.c ****     SPI_Slave_TX_STATUS_MASK_REG  = intSrc;
 779              		.loc 1 1193 0
 780 0000 024B     		ldr	r3, .L82
 781 0002 1870     		strb	r0, [r3]
1194:Generated_Source\PSoC5/SPI_Slave.c ****     SPI_Slave_RX_STATUS_MASK_REG  = intSrc;
 782              		.loc 1 1194 0
ARM GAS  C:\Users\LARSHO~1\AppData\Local\Temp\ccO9gOSk.s 			page 36


 783 0004 03F58173 		add	r3, r3, #258
 784 0008 1870     		strb	r0, [r3]
 785 000a 7047     		bx	lr
 786              	.L83:
 787              		.align	2
 788              	.L82:
 789 000c 88640040 		.word	1073767560
 790              		.cfi_endproc
 791              	.LFE22:
 792              		.size	SPI_Slave_SetInterruptMode, .-SPI_Slave_SetInterruptMode
 793              		.section	.text.SPI_Slave_ReadStatus,"ax",%progbits
 794              		.align	2
 795              		.global	SPI_Slave_ReadStatus
 796              		.thumb
 797              		.thumb_func
 798              		.type	SPI_Slave_ReadStatus, %function
 799              	SPI_Slave_ReadStatus:
 800              	.LFB23:
1195:Generated_Source\PSoC5/SPI_Slave.c **** }
1196:Generated_Source\PSoC5/SPI_Slave.c **** 
1197:Generated_Source\PSoC5/SPI_Slave.c **** 
1198:Generated_Source\PSoC5/SPI_Slave.c **** /*******************************************************************************
1199:Generated_Source\PSoC5/SPI_Slave.c **** * Function Name: SPI_Slave_ReadStatus
1200:Generated_Source\PSoC5/SPI_Slave.c **** ********************************************************************************
1201:Generated_Source\PSoC5/SPI_Slave.c **** *
1202:Generated_Source\PSoC5/SPI_Slave.c **** * Summary:
1203:Generated_Source\PSoC5/SPI_Slave.c **** *  Read the status register for the component.
1204:Generated_Source\PSoC5/SPI_Slave.c **** *
1205:Generated_Source\PSoC5/SPI_Slave.c **** * Parameters:
1206:Generated_Source\PSoC5/SPI_Slave.c **** *  None.
1207:Generated_Source\PSoC5/SPI_Slave.c **** *
1208:Generated_Source\PSoC5/SPI_Slave.c **** * Return:
1209:Generated_Source\PSoC5/SPI_Slave.c **** *  Contents of the status register.
1210:Generated_Source\PSoC5/SPI_Slave.c **** *
1211:Generated_Source\PSoC5/SPI_Slave.c **** * Global variables:
1212:Generated_Source\PSoC5/SPI_Slave.c **** *  SPI_Slave_swStatus - used to store in software status register,
1213:Generated_Source\PSoC5/SPI_Slave.c **** *  modified every function call - resets to zero.
1214:Generated_Source\PSoC5/SPI_Slave.c **** *
1215:Generated_Source\PSoC5/SPI_Slave.c **** * Theory:
1216:Generated_Source\PSoC5/SPI_Slave.c **** *  Allows the user and the API to read the status register for error detection
1217:Generated_Source\PSoC5/SPI_Slave.c **** *  and flow control.
1218:Generated_Source\PSoC5/SPI_Slave.c **** *
1219:Generated_Source\PSoC5/SPI_Slave.c **** * Side Effects:
1220:Generated_Source\PSoC5/SPI_Slave.c **** *  Clear status register of the component.
1221:Generated_Source\PSoC5/SPI_Slave.c **** *
1222:Generated_Source\PSoC5/SPI_Slave.c **** * Reentrant:
1223:Generated_Source\PSoC5/SPI_Slave.c **** *  No.
1224:Generated_Source\PSoC5/SPI_Slave.c **** *
1225:Generated_Source\PSoC5/SPI_Slave.c **** *******************************************************************************/
1226:Generated_Source\PSoC5/SPI_Slave.c **** uint8 SPI_Slave_ReadStatus(void) 
1227:Generated_Source\PSoC5/SPI_Slave.c **** {
 801              		.loc 1 1227 0
 802              		.cfi_startproc
 803              		@ args = 0, pretend = 0, frame = 0
 804              		@ frame_needed = 0, uses_anonymous_args = 0
 805              		@ link register save eliminated.
1228:Generated_Source\PSoC5/SPI_Slave.c ****     uint8 tmpStatus;
ARM GAS  C:\Users\LARSHO~1\AppData\Local\Temp\ccO9gOSk.s 			page 37


1229:Generated_Source\PSoC5/SPI_Slave.c **** 
1230:Generated_Source\PSoC5/SPI_Slave.c ****     #if ((SPI_Slave_TX_SOFTWARE_BUF_ENABLED) || (SPI_Slave_RX_SOFTWARE_BUF_ENABLED))
1231:Generated_Source\PSoC5/SPI_Slave.c **** 
1232:Generated_Source\PSoC5/SPI_Slave.c ****         SPI_Slave_DisableInt();
1233:Generated_Source\PSoC5/SPI_Slave.c **** 
1234:Generated_Source\PSoC5/SPI_Slave.c ****         tmpStatus = SPI_Slave_GET_STATUS_TX(SPI_Slave_swStatusTx) |
1235:Generated_Source\PSoC5/SPI_Slave.c ****               (SPI_Slave_GET_STATUS_RX(SPI_Slave_swStatusRx) & (uint8)~SPI_Slave_STS_RX_FIFO_FULL);
1236:Generated_Source\PSoC5/SPI_Slave.c **** 
1237:Generated_Source\PSoC5/SPI_Slave.c ****         SPI_Slave_swStatusTx = 0u;
1238:Generated_Source\PSoC5/SPI_Slave.c ****         SPI_Slave_swStatusRx = 0u;
1239:Generated_Source\PSoC5/SPI_Slave.c **** 
1240:Generated_Source\PSoC5/SPI_Slave.c ****         /* Enable Interrupts */
1241:Generated_Source\PSoC5/SPI_Slave.c ****         SPI_Slave_EnableInt();
1242:Generated_Source\PSoC5/SPI_Slave.c **** 
1243:Generated_Source\PSoC5/SPI_Slave.c ****     #else /* !((SPI_Slave_TX_SOFTWARE_BUF_ENABLED) || (SPI_Slave_RX_SOFTWARE_BUF_ENABLED)) */
1244:Generated_Source\PSoC5/SPI_Slave.c **** 
1245:Generated_Source\PSoC5/SPI_Slave.c ****         tmpStatus = SPI_Slave_TX_STATUS_REG | (SPI_Slave_RX_STATUS_REG &
 806              		.loc 1 1245 0
 807 0000 044B     		ldr	r3, .L85
 808 0002 1878     		ldrb	r0, [r3]	@ zero_extendqisi2
 809 0004 03F58173 		add	r3, r3, #258
 810 0008 1B78     		ldrb	r3, [r3]	@ zero_extendqisi2
 811 000a 03F0BF03 		and	r3, r3, #191
 812              	.LVL33:
1246:Generated_Source\PSoC5/SPI_Slave.c ****                                                       (uint8)~SPI_Slave_STS_RX_FIFO_FULL);
1247:Generated_Source\PSoC5/SPI_Slave.c **** 
1248:Generated_Source\PSoC5/SPI_Slave.c ****     #endif /* (SPI_Slave_TX_SOFTWARE_BUF_ENABLED) || (SPI_Slave_RX_SOFTWARE_BUF_ENABLED) */
1249:Generated_Source\PSoC5/SPI_Slave.c **** 
1250:Generated_Source\PSoC5/SPI_Slave.c ****     return(tmpStatus);
1251:Generated_Source\PSoC5/SPI_Slave.c **** }
 813              		.loc 1 1251 0
 814 000e 1843     		orrs	r0, r0, r3
 815              	.LVL34:
 816 0010 7047     		bx	lr
 817              	.L86:
 818 0012 00BF     		.align	2
 819              	.L85:
 820 0014 68640040 		.word	1073767528
 821              		.cfi_endproc
 822              	.LFE23:
 823              		.size	SPI_Slave_ReadStatus, .-SPI_Slave_ReadStatus
 824              		.comm	SPI_Slave_swStatusRx,1,1
 825              		.comm	SPI_Slave_swStatusTx,1,1
 826              		.global	SPI_Slave_initVar
 827              		.bss
 828              		.set	.LANCHOR0,. + 0
 829              		.type	SPI_Slave_initVar, %object
 830              		.size	SPI_Slave_initVar, 1
 831              	SPI_Slave_initVar:
 832 0000 00       		.space	1
 833              		.text
 834              	.Letext0:
 835              		.file 2 "Generated_Source\\PSoC5\\cytypes.h"
 836              		.file 3 "Generated_Source\\PSoC5\\CyLib.h"