ARM GAS  C:\Users\chris\AppData\Local\Temp\cck5Gkuu.s 			page 1


   1              		.syntax unified
   2              		.cpu cortex-m3
   3              		.fpu softvfp
   4              		.eabi_attribute 20, 1
   5              		.eabi_attribute 21, 1
   6              		.eabi_attribute 23, 3
   7              		.eabi_attribute 24, 1
   8              		.eabi_attribute 25, 1
   9              		.eabi_attribute 26, 1
  10              		.eabi_attribute 30, 1
  11              		.eabi_attribute 34, 1
  12              		.eabi_attribute 18, 4
  13              		.thumb
  14              		.syntax unified
  15              		.file	"main.c"
  16              		.text
  17              	.Ltext0:
  18              		.cfi_sections	.debug_frame
  19              		.section	.text.ISR_SPI,"ax",%progbits
  20              		.align	2
  21              		.global	ISR_SPI
  22              		.thumb
  23              		.thumb_func
  24              		.type	ISR_SPI, %function
  25              	ISR_SPI:
  26              	.LFB64:
  27              		.file 1 "main.c"
   1:main.c        **** 
   2:main.c        **** #include "project.h"
   3:main.c        **** #include <stdlib.h>
   4:main.c        **** #include <stdio.h>
   5:main.c        **** volatile uint8 received = 0; //Varaible to store received data
   6:main.c        **** volatile uint8 intFlag = 0; //Variable to indicate if there have been an interrupt
   7:main.c        **** volatile uint8 numberPrinted = 0;
   8:main.c        **** 
   9:main.c        **** CY_ISR_PROTO(ISR_SPI); //Interrupt prototype
  10:main.c        **** CY_ISR(ISR_SPI) //Interrupt service routine
  11:main.c        **** {
  28              		.loc 1 11 0
  29              		.cfi_startproc
  30              		@ args = 0, pretend = 0, frame = 0
  31              		@ frame_needed = 0, uses_anonymous_args = 0
  32 0000 08B5     		push	{r3, lr}
  33              		.cfi_def_cfa_offset 8
  34              		.cfi_offset 3, -8
  35              		.cfi_offset 14, -4
  12:main.c        ****     received = SPI_Slave_ReadRxData(); //Storing the received data
  36              		.loc 1 12 0
  37 0002 FFF7FEFF 		bl	SPI_Slave_ReadRxData
  38              	.LVL0:
  39 0006 044B     		ldr	r3, .L3
  40 0008 1870     		strb	r0, [r3]
  13:main.c        ****     intFlag = 1; //Indicating that an interrupt has occurred
  41              		.loc 1 13 0
  42 000a 0122     		movs	r2, #1
  43 000c 5A70     		strb	r2, [r3, #1]
  14:main.c        ****     SPI_Slave_ClearRxBuffer(); //Clearing the RX buffer
ARM GAS  C:\Users\chris\AppData\Local\Temp\cck5Gkuu.s 			page 2


  44              		.loc 1 14 0
  45 000e FFF7FEFF 		bl	SPI_Slave_ClearRxBuffer
  46              	.LVL1:
  15:main.c        ****     SPI_Slave_ClearFIFO(); //Clearing the FIFO register
  47              		.loc 1 15 0
  48 0012 FFF7FEFF 		bl	SPI_Slave_ClearFIFO
  49              	.LVL2:
  50 0016 08BD     		pop	{r3, pc}
  51              	.L4:
  52              		.align	2
  53              	.L3:
  54 0018 00000000 		.word	.LANCHOR0
  55              		.cfi_endproc
  56              	.LFE64:
  57              		.size	ISR_SPI, .-ISR_SPI
  58              		.section	.text.main,"ax",%progbits
  59              		.align	2
  60              		.global	main
  61              		.thumb
  62              		.thumb_func
  63              		.type	main, %function
  64              	main:
  65              	.LFB65:
  16:main.c        **** }
  17:main.c        **** 
  18:main.c        **** int main(void)
  19:main.c        **** {
  66              		.loc 1 19 0
  67              		.cfi_startproc
  68              		@ Volatile: function does not return.
  69              		@ args = 0, pretend = 0, frame = 0
  70              		@ frame_needed = 0, uses_anonymous_args = 0
  71 0000 08B5     		push	{r3, lr}
  72              		.cfi_def_cfa_offset 8
  73              		.cfi_offset 3, -8
  74              		.cfi_offset 14, -4
  20:main.c        ****     CyGlobalIntEnable; //Enable global interrupts. 
  75              		.loc 1 20 0
  76              		.syntax unified
  77              	@ 20 "main.c" 1
  78 0002 62B6     		CPSIE   i
  79              	@ 0 "" 2
  21:main.c        **** 
  22:main.c        ****     UART_Slave_Start(); //Starting UART on the slave
  80              		.loc 1 22 0
  81              		.thumb
  82              		.syntax unified
  83 0004 FFF7FEFF 		bl	UART_Slave_Start
  84              	.LVL3:
  23:main.c        ****     
  24:main.c        ****     UART_Slave_PutString("\r\n\r\n ---------- Connection Established ---------- \r\n\r\n"); //Print
  85              		.loc 1 24 0
  86 0008 0748     		ldr	r0, .L8
  87 000a FFF7FEFF 		bl	UART_Slave_PutString
  88              	.LVL4:
  25:main.c        ****     
  26:main.c        ****     ISR_SPI_StartEx(ISR_SPI); //Initialising the ISR
ARM GAS  C:\Users\chris\AppData\Local\Temp\cck5Gkuu.s 			page 3


  89              		.loc 1 26 0
  90 000e 0748     		ldr	r0, .L8+4
  91 0010 FFF7FEFF 		bl	ISR_SPI_StartEx
  92              	.LVL5:
  27:main.c        ****     
  28:main.c        ****     SPI_Slave_Start(); // Starting the SPI Slave
  93              		.loc 1 28 0
  94 0014 FFF7FEFF 		bl	SPI_Slave_Start
  95              	.LVL6:
  96              	.L6:
  29:main.c        ****     char test[100];
  30:main.c        ****     //char testchar[1];
  31:main.c        ****     
  32:main.c        ****     for(;;)
  33:main.c        ****     {
  34:main.c        ****         SPI_Slave_WriteTxData('a');
  97              		.loc 1 34 0 discriminator 1
  98 0018 6120     		movs	r0, #97
  99 001a FFF7FEFF 		bl	SPI_Slave_WriteTxData
 100              	.LVL7:
  35:main.c        ****         CyDelay(200);
 101              		.loc 1 35 0 discriminator 1
 102 001e C820     		movs	r0, #200
 103 0020 FFF7FEFF 		bl	CyDelay
 104              	.LVL8:
 105 0024 F8E7     		b	.L6
 106              	.L9:
 107 0026 00BF     		.align	2
 108              	.L8:
 109 0028 00000000 		.word	.LC0
 110 002c 00000000 		.word	ISR_SPI
 111              		.cfi_endproc
 112              	.LFE65:
 113              		.size	main, .-main
 114              		.global	numberPrinted
 115              		.global	intFlag
 116              		.global	received
 117              		.section	.rodata.str1.4,"aMS",%progbits,1
 118              		.align	2
 119              	.LC0:
 120 0000 0D0A0D0A 		.ascii	"\015\012\015\012 ---------- Connection Established "
 120      202D2D2D 
 120      2D2D2D2D 
 120      2D2D2D20 
 120      436F6E6E 
 121 0027 2D2D2D2D 		.ascii	"---------- \015\012\015\012\000"
 121      2D2D2D2D 
 121      2D2D200D 
 121      0A0D0A00 
 122              		.bss
 123              		.set	.LANCHOR0,. + 0
 124              		.type	received, %object
 125              		.size	received, 1
 126              	received:
 127 0000 00       		.space	1
 128              		.type	intFlag, %object
 129              		.size	intFlag, 1
ARM GAS  C:\Users\chris\AppData\Local\Temp\cck5Gkuu.s 			page 4


 130              	intFlag:
 131 0001 00       		.space	1
 132              		.type	numberPrinted, %object
 133              		.size	numberPrinted, 1
 134              	numberPrinted:
 135 0002 00       		.space	1
 136              		.text
 137              	.Letext0:
 138              		.file 2 "c:\\program files (x86)\\cypress\\psoc creator\\4.1\\psoc creator\\import\\gnu\\arm\\5.4.
 139              		.file 3 "c:\\program files (x86)\\cypress\\psoc creator\\4.1\\psoc creator\\import\\gnu\\arm\\5.4.
 140              		.file 4 "Generated_Source\\PSoC5/cytypes.h"
 141              		.file 5 "Generated_Source\\PSoC5/core_cm3.h"
 142              		.file 6 "Generated_Source\\PSoC5/SPI_Slave.h"
 143              		.file 7 "Generated_Source\\PSoC5/UART_Slave.h"
 144              		.file 8 "Generated_Source\\PSoC5/ISR_SPI.h"
 145              		.file 9 "Generated_Source\\PSoC5/CyLib.h"