ARM GAS  C:\Users\LARSHO~1\AppData\Local\Temp\ccA27Ani.s 			page 1


   1              		.syntax unified
   2              		.cpu cortex-m3
   3              		.fpu softvfp
   4              		.eabi_attribute 20, 1
   5              		.eabi_attribute 21, 1
   6              		.eabi_attribute 23, 3
   7              		.eabi_attribute 24, 1
   8              		.eabi_attribute 25, 1
   9              		.eabi_attribute 26, 1
  10              		.eabi_attribute 30, 1
  11              		.eabi_attribute 34, 1
  12              		.eabi_attribute 18, 4
  13              		.thumb
  14              		.syntax unified
  15              		.file	"BatterySensor.c"
  16              		.text
  17              	.Ltext0:
  18              		.cfi_sections	.debug_frame
  19              		.global	__aeabi_i2f
  20              		.global	__aeabi_f2d
  21              		.global	__aeabi_dsub
  22              		.global	__aeabi_ddiv
  23              		.global	__aeabi_d2f
  24              		.global	__aeabi_dcmplt
  25              		.section	.text.checkBattery,"ax",%progbits
  26              		.align	2
  27              		.global	checkBattery
  28              		.thumb
  29              		.thumb_func
  30              		.type	checkBattery, %function
  31              	checkBattery:
  32              	.LFB64:
  33              		.file 1 "BatterySensor.c"
   1:BatterySensor.c **** /* ========================================
   2:BatterySensor.c ****  *
   3:BatterySensor.c ****  * Copyright YOUR COMPANY, THE YEAR
   4:BatterySensor.c ****  * All Rights Reserved
   5:BatterySensor.c ****  * UNPUBLISHED, LICENSED SOFTWARE.
   6:BatterySensor.c ****  *
   7:BatterySensor.c ****  * CONFIDENTIAL AND PROPRIETARY INFORMATION
   8:BatterySensor.c ****  * WHICH IS THE PROPERTY OF your company.
   9:BatterySensor.c ****  *
  10:BatterySensor.c ****  * ========================================
  11:BatterySensor.c **** */
  12:BatterySensor.c **** #include"project.h"
  13:BatterySensor.c **** #include"BatterySensor.h"
  14:BatterySensor.c **** #include <stdio.h>
  15:BatterySensor.c **** 
  16:BatterySensor.c **** #define CRITICAL_LEVEL 1.92       //1.92 V = 20% Battery Voltage 9,6 V
  17:BatterySensor.c **** 
  18:BatterySensor.c **** float voltage = 0;
  19:BatterySensor.c **** char uartBufferBattery[256];
  20:BatterySensor.c **** 
  21:BatterySensor.c **** void checkBattery()
  22:BatterySensor.c **** {
  34              		.loc 1 22 0
  35              		.cfi_startproc
ARM GAS  C:\Users\LARSHO~1\AppData\Local\Temp\ccA27Ani.s 			page 2


  36              		@ args = 0, pretend = 0, frame = 0
  37              		@ frame_needed = 0, uses_anonymous_args = 0
  38 0000 30B5     		push	{r4, r5, lr}
  39              		.cfi_def_cfa_offset 12
  40              		.cfi_offset 4, -12
  41              		.cfi_offset 5, -8
  42              		.cfi_offset 14, -4
  43 0002 83B0     		sub	sp, sp, #12
  44              		.cfi_def_cfa_offset 24
  23:BatterySensor.c ****     if (ADC_SAR_B_IsEndConversion(ADC_SAR_B_WAIT_FOR_RESULT))
  45              		.loc 1 23 0
  46 0004 0020     		movs	r0, #0
  47 0006 FFF7FEFF 		bl	ADC_SAR_B_IsEndConversion
  48              	.LVL0:
  49 000a A0B3     		cbz	r0, .L2
  50              	.LBB2:
  24:BatterySensor.c ****         {
  25:BatterySensor.c ****             // Store result from conversion in result
  26:BatterySensor.c ****             float result = ADC_SAR_B_GetResult16();
  51              		.loc 1 26 0
  52 000c FFF7FEFF 		bl	ADC_SAR_B_GetResult16
  53              	.LVL1:
  54 0010 FFF7FEFF 		bl	__aeabi_i2f
  55              	.LVL2:
  27:BatterySensor.c ****             
  28:BatterySensor.c ****             voltage = (result-51.6)/397.6;  //x = (y-b)/a
  56              		.loc 1 28 0
  57 0014 FFF7FEFF 		bl	__aeabi_f2d
  58              	.LVL3:
  59 0018 1BA3     		adr	r3, .L8
  60 001a D3E90023 		ldrd	r2, [r3]
  61 001e FFF7FEFF 		bl	__aeabi_dsub
  62              	.LVL4:
  63 0022 1BA3     		adr	r3, .L8+8
  64 0024 D3E90023 		ldrd	r2, [r3]
  65 0028 FFF7FEFF 		bl	__aeabi_ddiv
  66              	.LVL5:
  67 002c FFF7FEFF 		bl	__aeabi_d2f
  68              	.LVL6:
  69 0030 1B4C     		ldr	r4, .L8+24
  70 0032 2060     		str	r0, [r4]	@ float
  29:BatterySensor.c ****                    
  30:BatterySensor.c ****             snprintf(uartBufferBattery, sizeof(uartBufferBattery), "%f \r\n", voltage);
  71              		.loc 1 30 0
  72 0034 1B4D     		ldr	r5, .L8+28
  73 0036 FFF7FEFF 		bl	__aeabi_f2d
  74              	.LVL7:
  75 003a CDE90001 		strd	r0, [sp]
  76 003e 1A4A     		ldr	r2, .L8+32
  77 0040 4FF48071 		mov	r1, #256
  78 0044 2846     		mov	r0, r5
  79 0046 FFF7FEFF 		bl	snprintf
  80              	.LVL8:
  31:BatterySensor.c ****             UART_1_PutString(uartBufferBattery);   //prints the measures weight in grams
  81              		.loc 1 31 0
  82 004a 2846     		mov	r0, r5
  83 004c FFF7FEFF 		bl	UART_1_PutString
ARM GAS  C:\Users\LARSHO~1\AppData\Local\Temp\ccA27Ani.s 			page 3


  84              	.LVL9:
  32:BatterySensor.c ****             
  33:BatterySensor.c ****             if(voltage < CRITICAL_LEVEL)
  85              		.loc 1 33 0
  86 0050 2068     		ldr	r0, [r4]	@ float
  87 0052 FFF7FEFF 		bl	__aeabi_f2d
  88              	.LVL10:
  89 0056 10A3     		adr	r3, .L8+16
  90 0058 D3E90023 		ldrd	r2, [r3]
  91 005c FFF7FEFF 		bl	__aeabi_dcmplt
  92              	.LVL11:
  93 0060 30B1     		cbz	r0, .L6
  34:BatterySensor.c ****             {
  35:BatterySensor.c ****             UART_1_PutString("Voltage level too low. Stop Broomba");   //prints the measures weight
  94              		.loc 1 35 0
  95 0062 1248     		ldr	r0, .L8+36
  96 0064 FFF7FEFF 		bl	UART_1_PutString
  97              	.LVL12:
  36:BatterySensor.c ****             SPI_Slave_WriteTxData('B');
  98              		.loc 1 36 0
  99 0068 4220     		movs	r0, #66
 100 006a FFF7FEFF 		bl	SPI_Slave_WriteTxData
 101              	.LVL13:
 102 006e 02E0     		b	.L2
 103              	.L6:
  37:BatterySensor.c ****             }
  38:BatterySensor.c ****             else
  39:BatterySensor.c ****             {
  40:BatterySensor.c ****                 SPI_Slave_WriteTxData('I');
 104              		.loc 1 40 0
 105 0070 4920     		movs	r0, #73
 106 0072 FFF7FEFF 		bl	SPI_Slave_WriteTxData
 107              	.LVL14:
 108              	.L2:
 109              	.LBE2:
  41:BatterySensor.c ****                 
  42:BatterySensor.c ****             }
  43:BatterySensor.c ****         }
  44:BatterySensor.c ****         CyDelay(500);
 110              		.loc 1 44 0
 111 0076 4FF4FA70 		mov	r0, #500
 112 007a FFF7FEFF 		bl	CyDelay
 113              	.LVL15:
  45:BatterySensor.c **** }
 114              		.loc 1 45 0
 115 007e 03B0     		add	sp, sp, #12
 116              		.cfi_def_cfa_offset 12
 117              		@ sp needed
 118 0080 30BD     		pop	{r4, r5, pc}
 119              	.L9:
 120 0082 00BFAFF3 		.align	3
 120      0080
 121              	.L8:
 122 0088 CDCCCCCC 		.word	-858993459
 123 008c CCCC4940 		.word	1078578380
 124 0090 9A999999 		.word	-1717986918
 125 0094 99D97840 		.word	1081661849
ARM GAS  C:\Users\LARSHO~1\AppData\Local\Temp\ccA27Ani.s 			page 4


 126 0098 B81E85EB 		.word	-343597384
 127 009c 51B8FE3F 		.word	1073657937
 128 00a0 00000000 		.word	.LANCHOR0
 129 00a4 00000000 		.word	uartBufferBattery
 130 00a8 00000000 		.word	.LC0
 131 00ac 08000000 		.word	.LC1
 132              		.cfi_endproc
 133              	.LFE64:
 134              		.size	checkBattery, .-checkBattery
 135              		.comm	uartBufferBattery,256,4
 136              		.global	voltage
 137              		.section	.rodata.str1.4,"aMS",%progbits,1
 138              		.align	2
 139              	.LC0:
 140 0000 2566200D 		.ascii	"%f \015\012\000"
 140      0A00
 141 0006 0000     		.space	2
 142              	.LC1:
 143 0008 566F6C74 		.ascii	"Voltage level too low. Stop Broomba\000"
 143      61676520 
 143      6C657665 
 143      6C20746F 
 143      6F206C6F 
 144              		.bss
 145              		.align	2
 146              		.set	.LANCHOR0,. + 0
 147              		.type	voltage, %object
 148              		.size	voltage, 4
 149              	voltage:
 150 0000 00000000 		.space	4
 151              		.text
 152              	.Letext0:
 153              		.file 2 "c:\\program files (x86)\\cypress\\psoc creator\\4.1\\psoc creator\\import\\gnu\\arm\\5.4.
 154              		.file 3 "c:\\program files (x86)\\cypress\\psoc creator\\4.1\\psoc creator\\import\\gnu\\arm\\5.4.
 155              		.file 4 "Generated_Source\\PSoC5/core_cm3.h"
 156              		.file 5 "Generated_Source\\PSoC5/ADC_SAR_B.h"
 157              		.file 6 "c:\\program files (x86)\\cypress\\psoc creator\\4.1\\psoc creator\\import\\gnu\\arm\\5.4.
 158              		.file 7 "Generated_Source\\PSoC5/UART_1.h"
 159              		.file 8 "Generated_Source\\PSoC5/SPI_Slave.h"
 160              		.file 9 "Generated_Source\\PSoC5/CyLib.h"