ARM GAS  C:\Users\chris\AppData\Local\Temp\ccH2wpqK.s 			page 1


   1              		.syntax unified
   2              		.cpu cortex-m3
   3              		.fpu softvfp
   4              		.eabi_attribute 20, 1
   5              		.eabi_attribute 21, 1
   6              		.eabi_attribute 23, 3
   7              		.eabi_attribute 24, 1
   8              		.eabi_attribute 25, 1
   9              		.eabi_attribute 26, 1
  10              		.eabi_attribute 30, 1
  11              		.eabi_attribute 34, 1
  12              		.eabi_attribute 18, 4
  13              		.thumb
  14              		.syntax unified
  15              		.file	"main.c"
  16              		.text
  17              	.Ltext0:
  18              		.cfi_sections	.debug_frame
  19              		.section	.text.ISR_SPI,"ax",%progbits
  20              		.align	2
  21              		.global	ISR_SPI
  22              		.thumb
  23              		.thumb_func
  24              		.type	ISR_SPI, %function
  25              	ISR_SPI:
  26              	.LFB64:
  27              		.file 1 "main.c"
   1:main.c        **** /* ========================================
   2:main.c        ****  *
   3:main.c        ****  * Copyright YOUR COMPANY, THE YEAR
   4:main.c        ****  * All Rights Reserved
   5:main.c        ****  * UNPUBLISHED, LICENSED SOFTWARE.
   6:main.c        ****  *
   7:main.c        ****  * CONFIDENTIAL AND PROPRIETARY INFORMATION
   8:main.c        ****  * WHICH IS THE PROPERTY OF your company.
   9:main.c        **** 
  10:main.c        **** 
  11:main.c        ****  * OPS PUMPE 40% pwm
  12:main.c        ****  * ========================================
  13:main.c        **** */
  14:main.c        **** #include "project.h"
  15:main.c        **** #include <CyLib.h>
  16:main.c        **** #include <stdio.h>
  17:main.c        **** #include <stdlib.h>
  18:main.c        **** 
  19:main.c        **** #define LEFT 1u
  20:main.c        **** #define RIGHT 2u
  21:main.c        **** 
  22:main.c        **** volatile uint8_t speed = 50;
  23:main.c        **** volatile uint turnspeed = 300;
  24:main.c        **** volatile uint backtimer = 500;
  25:main.c        **** volatile uint8_t sensor = 0;
  26:main.c        **** volatile uint8 received = 0; //Varaible to store received data
  27:main.c        **** volatile uint8 intFlag = 0; //Variable to indicate if there have been an interrupt
  28:main.c        **** volatile uint8 forward = 1;
  29:main.c        **** 
  30:main.c        **** volatile static uint8 flag = 0;
ARM GAS  C:\Users\chris\AppData\Local\Temp\ccH2wpqK.s 			page 2


  31:main.c        **** static uint8 turn = 0;
  32:main.c        **** 
  33:main.c        **** CY_ISR_PROTO(ISR_SPI); //Interrupt prototype
  34:main.c        **** CY_ISR(ISR_SPI) //Interrupt service routine
  35:main.c        **** {
  28              		.loc 1 35 0
  29              		.cfi_startproc
  30              		@ args = 0, pretend = 0, frame = 0
  31              		@ frame_needed = 0, uses_anonymous_args = 0
  32 0000 08B5     		push	{r3, lr}
  33              		.cfi_def_cfa_offset 8
  34              		.cfi_offset 3, -8
  35              		.cfi_offset 14, -4
  36:main.c        ****     received = SPI_Slave_ReadRxData(); //Storing the received data
  36              		.loc 1 36 0
  37 0002 FFF7FEFF 		bl	SPI_Slave_ReadRxData
  38              	.LVL0:
  39 0006 044B     		ldr	r3, .L3
  40 0008 1870     		strb	r0, [r3]
  37:main.c        ****     intFlag = 1; //Indicating that an interrupt has occurred
  41              		.loc 1 37 0
  42 000a 0122     		movs	r2, #1
  43 000c 5A70     		strb	r2, [r3, #1]
  38:main.c        ****     SPI_Slave_ClearRxBuffer(); //Clearing the RX buffer
  44              		.loc 1 38 0
  45 000e FFF7FEFF 		bl	SPI_Slave_ClearRxBuffer
  46              	.LVL1:
  39:main.c        ****     SPI_Slave_ClearFIFO(); //Clearing the FIFO register
  47              		.loc 1 39 0
  48 0012 FFF7FEFF 		bl	SPI_Slave_ClearFIFO
  49              	.LVL2:
  50 0016 08BD     		pop	{r3, pc}
  51              	.L4:
  52              		.align	2
  53              	.L3:
  54 0018 00000000 		.word	.LANCHOR0
  55              		.cfi_endproc
  56              	.LFE64:
  57              		.size	ISR_SPI, .-ISR_SPI
  58              		.section	.text.sensor_ISR,"ax",%progbits
  59              		.align	2
  60              		.global	sensor_ISR
  61              		.thumb
  62              		.thumb_func
  63              		.type	sensor_ISR, %function
  64              	sensor_ISR:
  65              	.LFB65:
  40:main.c        **** }
  41:main.c        **** 
  42:main.c        **** CY_ISR(sensor_ISR)
  43:main.c        **** {
  66              		.loc 1 43 0
  67              		.cfi_startproc
  68              		@ args = 0, pretend = 0, frame = 0
  69              		@ frame_needed = 0, uses_anonymous_args = 0
  70 0000 08B5     		push	{r3, lr}
  71              		.cfi_def_cfa_offset 8
ARM GAS  C:\Users\chris\AppData\Local\Temp\ccH2wpqK.s 			page 3


  72              		.cfi_offset 3, -8
  73              		.cfi_offset 14, -4
  44:main.c        ****     flag = Pin_1_Read();
  74              		.loc 1 44 0
  75 0002 FFF7FEFF 		bl	Pin_1_Read
  76              	.LVL3:
  77 0006 0D4B     		ldr	r3, .L9
  78 0008 9870     		strb	r0, [r3, #2]
  45:main.c        ****     UART_1_PutString("Flag bliver sat. Pin1\r\n");
  79              		.loc 1 45 0
  80 000a 0D48     		ldr	r0, .L9+4
  81 000c FFF7FEFF 		bl	UART_1_PutString
  82              	.LVL4:
  46:main.c        **** 
  47:main.c        ****     
  48:main.c        ****     CyDelay(50);
  83              		.loc 1 48 0
  84 0010 3220     		movs	r0, #50
  85 0012 FFF7FEFF 		bl	CyDelay
  86              	.LVL5:
  49:main.c        ****     //Check which pin caused the interrupt by reading interrupt status register
  50:main.c        ****     if(Pin_1_INTSTAT & (0x01 << Pin_1_SHIFT))
  87              		.loc 1 50 0
  88 0016 0B4B     		ldr	r3, .L9+8
  89 0018 1B78     		ldrb	r3, [r3]	@ zero_extendqisi2
  90 001a 13F0010F 		tst	r3, #1
  91 001e 06D0     		beq	.L6
  51:main.c        ****     {
  52:main.c        ****         turn = LEFT;
  92              		.loc 1 52 0
  93 0020 0122     		movs	r2, #1
  94 0022 064B     		ldr	r3, .L9
  95 0024 DA70     		strb	r2, [r3, #3]
  53:main.c        ****         CyDelay(50);
  96              		.loc 1 53 0
  97 0026 3220     		movs	r0, #50
  98 0028 FFF7FEFF 		bl	CyDelay
  99              	.LVL6:
 100 002c 08BD     		pop	{r3, pc}
 101              	.L6:
  54:main.c        ****     }
  55:main.c        ****     else
  56:main.c        ****     {
  57:main.c        ****         turn = RIGHT;
 102              		.loc 1 57 0
 103 002e 0222     		movs	r2, #2
 104 0030 024B     		ldr	r3, .L9
 105 0032 DA70     		strb	r2, [r3, #3]
  58:main.c        ****         CyDelay(50);
 106              		.loc 1 58 0
 107 0034 3220     		movs	r0, #50
 108 0036 FFF7FEFF 		bl	CyDelay
 109              	.LVL7:
 110 003a 08BD     		pop	{r3, pc}
 111              	.L10:
 112              		.align	2
 113              	.L9:
ARM GAS  C:\Users\chris\AppData\Local\Temp\ccH2wpqK.s 			page 4


 114 003c 00000000 		.word	.LANCHOR0
 115 0040 00000000 		.word	.LC0
 116 0044 80450040 		.word	1073759616
 117              		.cfi_endproc
 118              	.LFE65:
 119              		.size	sensor_ISR, .-sensor_ISR
 120              		.section	.text.decreaseSpeed,"ax",%progbits
 121              		.align	2
 122              		.global	decreaseSpeed
 123              		.thumb
 124              		.thumb_func
 125              		.type	decreaseSpeed, %function
 126              	decreaseSpeed:
 127              	.LFB68:
  59:main.c        ****     }
  60:main.c        **** }
  61:main.c        **** 
  62:main.c        **** CY_ISR_PROTO(ISR_UART_rx_handler);
  63:main.c        **** void handleByteReceived(uint8_t byteReceived);
  64:main.c        **** void decreaseSpeed(void);
  65:main.c        **** void increaseSpeed(void);
  66:main.c        **** void driveForwards(void);
  67:main.c        **** void driveBackwards(void);
  68:main.c        **** void stop(void);
  69:main.c        **** //void turnRight(void);
  70:main.c        **** //void turnLeft(void);
  71:main.c        **** 
  72:main.c        **** 
  73:main.c        **** CY_ISR(ISR_UART_rx_handler)
  74:main.c        **** {
  75:main.c        **** 	//Read char from RX buffer and react
  76:main.c        ****     uint8_t bytesToRead = UART_1_GetRxBufferSize();
  77:main.c        ****     while (bytesToRead > 0)
  78:main.c        ****     {
  79:main.c        ****         uint8_t byteReceived = UART_1_ReadRxData();
  80:main.c        ****         UART_1_WriteTxData(byteReceived); // echo back
  81:main.c        ****         
  82:main.c        ****         handleByteReceived(byteReceived);
  83:main.c        ****         
  84:main.c        ****         bytesToRead--;
  85:main.c        ****     }
  86:main.c        **** }
  87:main.c        **** 
  88:main.c        **** void handleByteReceived(uint8_t byteReceived)
  89:main.c        **** {
  90:main.c        ****     switch(byteReceived)
  91:main.c        ****     {
  92:main.c        ****         case 'q' :
  93:main.c        ****         {
  94:main.c        ****             decreaseSpeed();
  95:main.c        ****         }
  96:main.c        ****         break;
  97:main.c        ****         case 'w' :
  98:main.c        ****         {
  99:main.c        ****             increaseSpeed();
 100:main.c        ****         }
 101:main.c        ****         break;
ARM GAS  C:\Users\chris\AppData\Local\Temp\ccH2wpqK.s 			page 5


 102:main.c        ****         case '1' :
 103:main.c        ****         {
 104:main.c        ****             driveForwards();
 105:main.c        ****         }
 106:main.c        ****         break;
 107:main.c        ****         case '2' :
 108:main.c        ****         {
 109:main.c        ****             driveBackwards();
 110:main.c        ****         }
 111:main.c        ****         break;
 112:main.c        ****         case '0' :
 113:main.c        ****         {
 114:main.c        ****             stop();
 115:main.c        ****             
 116:main.c        ****         }
 117:main.c        ****         break;
 118:main.c        ****         default :
 119:main.c        ****         {
 120:main.c        ****             // nothing
 121:main.c        ****         }
 122:main.c        ****         break;
 123:main.c        ****     }
 124:main.c        **** }
 125:main.c        **** 
 126:main.c        **** //void turnRight(void)
 127:main.c        **** //{
 128:main.c        **** //    UART_1_PutString("Turning right\r\n");
 129:main.c        **** //    stop();
 130:main.c        **** //    driveBackwards();
 131:main.c        **** //    CyDelay(backTimer);
 132:main.c        **** //    driveForwards();
 133:main.c        **** //    PWM_M2_WriteCompare(speed);
 134:main.c        **** //    PWM_M4_WriteCompare(0);
 135:main.c        **** //    CyDelay(Turnspeed);
 136:main.c        **** //    PWM_M4_WriteCompare(speed);
 137:main.c        **** //}
 138:main.c        **** //void turnLeft(void)
 139:main.c        **** //{
 140:main.c        **** //    UART_1_PutString("Turning left\r\n");
 141:main.c        **** //    stop();
 142:main.c        **** //    driveBackwards();
 143:main.c        **** //    CyDelay(backTimer);
 144:main.c        **** //    driveForwards();
 145:main.c        **** //    PWM_M1_WriteCompare(speed);
 146:main.c        **** //    PWM_M3_WriteCompare(0);
 147:main.c        **** //    CyDelay(Turnspeed);
 148:main.c        **** //    PWM_M3_WriteCompare(speed);
 149:main.c        **** //}
 150:main.c        **** 
 151:main.c        **** void decreaseSpeed()
 152:main.c        **** {
 128              		.loc 1 152 0
 129              		.cfi_startproc
 130              		@ args = 0, pretend = 0, frame = 0
 131              		@ frame_needed = 0, uses_anonymous_args = 0
 132 0000 08B5     		push	{r3, lr}
 133              		.cfi_def_cfa_offset 8
ARM GAS  C:\Users\chris\AppData\Local\Temp\ccH2wpqK.s 			page 6


 134              		.cfi_offset 3, -8
 135              		.cfi_offset 14, -4
 153:main.c        ****     UART_1_PutString("Decreasing speed\r\n");
 136              		.loc 1 153 0
 137 0002 1048     		ldr	r0, .L17
 138 0004 FFF7FEFF 		bl	UART_1_PutString
 139              	.LVL8:
 154:main.c        **** 
 155:main.c        **** 	if (speed <= 10)
 140              		.loc 1 155 0
 141 0008 0F4B     		ldr	r3, .L17+4
 142 000a 1B78     		ldrb	r3, [r3]	@ zero_extendqisi2
 143 000c DBB2     		uxtb	r3, r3
 144 000e 0A2B     		cmp	r3, #10
 145 0010 03D8     		bhi	.L12
 156:main.c        **** 	{
 157:main.c        **** 		speed = 0;
 146              		.loc 1 157 0
 147 0012 0022     		movs	r2, #0
 148 0014 0C4B     		ldr	r3, .L17+4
 149 0016 1A70     		strb	r2, [r3]
 150 0018 04E0     		b	.L13
 151              	.L12:
 158:main.c        **** 	}
 159:main.c        **** 	else
 160:main.c        **** 	{
 161:main.c        **** 		speed -= 10;
 152              		.loc 1 161 0
 153 001a 0B4A     		ldr	r2, .L17+4
 154 001c 1378     		ldrb	r3, [r2]	@ zero_extendqisi2
 155 001e 0A3B     		subs	r3, r3, #10
 156 0020 DBB2     		uxtb	r3, r3
 157 0022 1370     		strb	r3, [r2]
 158              	.L13:
 162:main.c        **** 	}
 163:main.c        **** 
 164:main.c        ****     if (forward == 1)
 159              		.loc 1 164 0
 160 0024 084B     		ldr	r3, .L17+4
 161 0026 5B78     		ldrb	r3, [r3, #1]	@ zero_extendqisi2
 162 0028 DBB2     		uxtb	r3, r3
 163 002a 012B     		cmp	r3, #1
 164 002c 04D1     		bne	.L14
 165:main.c        ****     {
 166:main.c        ****         PWM_M1_WriteCompare(speed);    
 165              		.loc 1 166 0
 166 002e 064B     		ldr	r3, .L17+4
 167 0030 1878     		ldrb	r0, [r3]	@ zero_extendqisi2
 168 0032 FFF7FEFF 		bl	PWM_M1_WriteCompare
 169              	.LVL9:
 170 0036 08BD     		pop	{r3, pc}
 171              	.L14:
 167:main.c        ****     }
 168:main.c        ****     else
 169:main.c        ****     {
 170:main.c        ****         PWM_M2_WriteCompare(speed);//Increase compare variable to increase speed
 172              		.loc 1 170 0
ARM GAS  C:\Users\chris\AppData\Local\Temp\ccH2wpqK.s 			page 7


 173 0038 034B     		ldr	r3, .L17+4
 174 003a 1878     		ldrb	r0, [r3]	@ zero_extendqisi2
 175 003c FFF7FEFF 		bl	PWM_M2_WriteCompare
 176              	.LVL10:
 177 0040 08BD     		pop	{r3, pc}
 178              	.L18:
 179 0042 00BF     		.align	2
 180              	.L17:
 181 0044 18000000 		.word	.LC1
 182 0048 00000000 		.word	.LANCHOR1
 183              		.cfi_endproc
 184              	.LFE68:
 185              		.size	decreaseSpeed, .-decreaseSpeed
 186              		.section	.text.increaseSpeed,"ax",%progbits
 187              		.align	2
 188              		.global	increaseSpeed
 189              		.thumb
 190              		.thumb_func
 191              		.type	increaseSpeed, %function
 192              	increaseSpeed:
 193              	.LFB69:
 171:main.c        ****     }
 172:main.c        **** }
 173:main.c        **** 
 174:main.c        **** void increaseSpeed()
 175:main.c        **** {
 194              		.loc 1 175 0
 195              		.cfi_startproc
 196              		@ args = 0, pretend = 0, frame = 0
 197              		@ frame_needed = 0, uses_anonymous_args = 0
 198 0000 08B5     		push	{r3, lr}
 199              		.cfi_def_cfa_offset 8
 200              		.cfi_offset 3, -8
 201              		.cfi_offset 14, -4
 176:main.c        ****     UART_1_PutString("Increasing speed\r\n");
 202              		.loc 1 176 0
 203 0002 0F48     		ldr	r0, .L24
 204 0004 FFF7FEFF 		bl	UART_1_PutString
 205              	.LVL11:
 177:main.c        **** 	speed = speed + 10;
 206              		.loc 1 177 0
 207 0008 0E4A     		ldr	r2, .L24+4
 208 000a 1378     		ldrb	r3, [r2]	@ zero_extendqisi2
 209 000c 0A33     		adds	r3, r3, #10
 210 000e DBB2     		uxtb	r3, r3
 211 0010 1370     		strb	r3, [r2]
 178:main.c        **** 	if (speed > 100)
 212              		.loc 1 178 0
 213 0012 1378     		ldrb	r3, [r2]	@ zero_extendqisi2
 214 0014 DBB2     		uxtb	r3, r3
 215 0016 642B     		cmp	r3, #100
 216 0018 02D9     		bls	.L20
 179:main.c        **** 	{
 180:main.c        **** 		speed = 100;
 217              		.loc 1 180 0
 218 001a 6422     		movs	r2, #100
 219 001c 094B     		ldr	r3, .L24+4
ARM GAS  C:\Users\chris\AppData\Local\Temp\ccH2wpqK.s 			page 8


 220 001e 1A70     		strb	r2, [r3]
 221              	.L20:
 181:main.c        **** 	}
 182:main.c        ****     if (forward == 1)
 222              		.loc 1 182 0
 223 0020 084B     		ldr	r3, .L24+4
 224 0022 5B78     		ldrb	r3, [r3, #1]	@ zero_extendqisi2
 225 0024 DBB2     		uxtb	r3, r3
 226 0026 012B     		cmp	r3, #1
 227 0028 04D1     		bne	.L21
 183:main.c        ****     {
 184:main.c        ****         PWM_M1_WriteCompare(speed);    
 228              		.loc 1 184 0
 229 002a 064B     		ldr	r3, .L24+4
 230 002c 1878     		ldrb	r0, [r3]	@ zero_extendqisi2
 231 002e FFF7FEFF 		bl	PWM_M1_WriteCompare
 232              	.LVL12:
 233 0032 08BD     		pop	{r3, pc}
 234              	.L21:
 185:main.c        ****     }
 186:main.c        ****     else
 187:main.c        ****     {
 188:main.c        ****         PWM_M2_WriteCompare(speed);//Increase compare variable to increase speed
 235              		.loc 1 188 0
 236 0034 034B     		ldr	r3, .L24+4
 237 0036 1878     		ldrb	r0, [r3]	@ zero_extendqisi2
 238 0038 FFF7FEFF 		bl	PWM_M2_WriteCompare
 239              	.LVL13:
 240 003c 08BD     		pop	{r3, pc}
 241              	.L25:
 242 003e 00BF     		.align	2
 243              	.L24:
 244 0040 2C000000 		.word	.LC2
 245 0044 00000000 		.word	.LANCHOR1
 246              		.cfi_endproc
 247              	.LFE69:
 248              		.size	increaseSpeed, .-increaseSpeed
 249              		.section	.text.driveForwards,"ax",%progbits
 250              		.align	2
 251              		.global	driveForwards
 252              		.thumb
 253              		.thumb_func
 254              		.type	driveForwards, %function
 255              	driveForwards:
 256              	.LFB70:
 189:main.c        ****     }
 190:main.c        **** }
 191:main.c        **** 
 192:main.c        **** void driveForwards()
 193:main.c        **** {
 257              		.loc 1 193 0
 258              		.cfi_startproc
 259              		@ args = 0, pretend = 0, frame = 0
 260              		@ frame_needed = 0, uses_anonymous_args = 0
 261 0000 38B5     		push	{r3, r4, r5, lr}
 262              		.cfi_def_cfa_offset 16
 263              		.cfi_offset 3, -16
ARM GAS  C:\Users\chris\AppData\Local\Temp\ccH2wpqK.s 			page 9


 264              		.cfi_offset 4, -12
 265              		.cfi_offset 5, -8
 266              		.cfi_offset 14, -4
 194:main.c        ****     UART_1_PutString("Set direction: forwards\r\n");
 267              		.loc 1 194 0
 268 0002 0948     		ldr	r0, .L28
 269 0004 FFF7FEFF 		bl	UART_1_PutString
 270              	.LVL14:
 195:main.c        ****     forward = 1;
 271              		.loc 1 195 0
 272 0008 084C     		ldr	r4, .L28+4
 273 000a 0125     		movs	r5, #1
 274 000c 6570     		strb	r5, [r4, #1]
 196:main.c        ****     PWM_M1_WriteCompare(0);
 275              		.loc 1 196 0
 276 000e 0020     		movs	r0, #0
 277 0010 FFF7FEFF 		bl	PWM_M1_WriteCompare
 278              	.LVL15:
 197:main.c        ****     CyDelay(1);
 279              		.loc 1 197 0
 280 0014 2846     		mov	r0, r5
 281 0016 FFF7FEFF 		bl	CyDelay
 282              	.LVL16:
 198:main.c        ****     speed = 50;
 283              		.loc 1 198 0
 284 001a 3223     		movs	r3, #50
 285 001c 2370     		strb	r3, [r4]
 199:main.c        ****     PWM_M1_WriteCompare(speed);
 286              		.loc 1 199 0
 287 001e 2078     		ldrb	r0, [r4]	@ zero_extendqisi2
 288 0020 FFF7FEFF 		bl	PWM_M1_WriteCompare
 289              	.LVL17:
 290 0024 38BD     		pop	{r3, r4, r5, pc}
 291              	.L29:
 292 0026 00BF     		.align	2
 293              	.L28:
 294 0028 40000000 		.word	.LC3
 295 002c 00000000 		.word	.LANCHOR1
 296              		.cfi_endproc
 297              	.LFE70:
 298              		.size	driveForwards, .-driveForwards
 299              		.section	.text.driveBackwards,"ax",%progbits
 300              		.align	2
 301              		.global	driveBackwards
 302              		.thumb
 303              		.thumb_func
 304              		.type	driveBackwards, %function
 305              	driveBackwards:
 306              	.LFB71:
 200:main.c        **** }
 201:main.c        **** 
 202:main.c        **** void driveBackwards()
 203:main.c        **** {
 307              		.loc 1 203 0
 308              		.cfi_startproc
 309              		@ args = 0, pretend = 0, frame = 0
 310              		@ frame_needed = 0, uses_anonymous_args = 0
ARM GAS  C:\Users\chris\AppData\Local\Temp\ccH2wpqK.s 			page 10


 311 0000 10B5     		push	{r4, lr}
 312              		.cfi_def_cfa_offset 8
 313              		.cfi_offset 4, -8
 314              		.cfi_offset 14, -4
 204:main.c        ****     UART_1_PutString("Set direction: backwards\r\n");
 315              		.loc 1 204 0
 316 0002 0848     		ldr	r0, .L32
 317 0004 FFF7FEFF 		bl	UART_1_PutString
 318              	.LVL18:
 205:main.c        ****     forward = 0;
 319              		.loc 1 205 0
 320 0008 074C     		ldr	r4, .L32+4
 321 000a 0020     		movs	r0, #0
 322 000c 6070     		strb	r0, [r4, #1]
 206:main.c        ****     PWM_M2_WriteCompare(0);
 323              		.loc 1 206 0
 324 000e FFF7FEFF 		bl	PWM_M2_WriteCompare
 325              	.LVL19:
 207:main.c        ****     CyDelay(1);
 326              		.loc 1 207 0
 327 0012 0120     		movs	r0, #1
 328 0014 FFF7FEFF 		bl	CyDelay
 329              	.LVL20:
 208:main.c        ****     speed = 50;
 330              		.loc 1 208 0
 331 0018 3223     		movs	r3, #50
 332 001a 2370     		strb	r3, [r4]
 209:main.c        ****     PWM_M2_WriteCompare(speed);
 333              		.loc 1 209 0
 334 001c 2078     		ldrb	r0, [r4]	@ zero_extendqisi2
 335 001e FFF7FEFF 		bl	PWM_M2_WriteCompare
 336              	.LVL21:
 337 0022 10BD     		pop	{r4, pc}
 338              	.L33:
 339              		.align	2
 340              	.L32:
 341 0024 5C000000 		.word	.LC4
 342 0028 00000000 		.word	.LANCHOR1
 343              		.cfi_endproc
 344              	.LFE71:
 345              		.size	driveBackwards, .-driveBackwards
 346              		.section	.text.stop,"ax",%progbits
 347              		.align	2
 348              		.global	stop
 349              		.thumb
 350              		.thumb_func
 351              		.type	stop, %function
 352              	stop:
 353              	.LFB72:
 210:main.c        **** }
 211:main.c        **** 
 212:main.c        **** void stop()
 213:main.c        **** {
 354              		.loc 1 213 0
 355              		.cfi_startproc
 356              		@ args = 0, pretend = 0, frame = 0
 357              		@ frame_needed = 0, uses_anonymous_args = 0
ARM GAS  C:\Users\chris\AppData\Local\Temp\ccH2wpqK.s 			page 11


 358 0000 10B5     		push	{r4, lr}
 359              		.cfi_def_cfa_offset 8
 360              		.cfi_offset 4, -8
 361              		.cfi_offset 14, -4
 214:main.c        ****     UART_1_PutString("Stop\r\n");
 362              		.loc 1 214 0
 363 0002 0648     		ldr	r0, .L36
 364 0004 FFF7FEFF 		bl	UART_1_PutString
 365              	.LVL22:
 215:main.c        **** 	speed = 0;
 366              		.loc 1 215 0
 367 0008 054C     		ldr	r4, .L36+4
 368 000a 0023     		movs	r3, #0
 369 000c 2370     		strb	r3, [r4]
 216:main.c        **** 	PWM_M1_WriteCompare(speed);
 370              		.loc 1 216 0
 371 000e 2078     		ldrb	r0, [r4]	@ zero_extendqisi2
 372 0010 FFF7FEFF 		bl	PWM_M1_WriteCompare
 373              	.LVL23:
 217:main.c        ****     PWM_M2_WriteCompare(speed);
 374              		.loc 1 217 0
 375 0014 2078     		ldrb	r0, [r4]	@ zero_extendqisi2
 376 0016 FFF7FEFF 		bl	PWM_M2_WriteCompare
 377              	.LVL24:
 378 001a 10BD     		pop	{r4, pc}
 379              	.L37:
 380              		.align	2
 381              	.L36:
 382 001c 78000000 		.word	.LC5
 383 0020 00000000 		.word	.LANCHOR1
 384              		.cfi_endproc
 385              	.LFE72:
 386              		.size	stop, .-stop
 387              		.section	.text.handleByteReceived,"ax",%progbits
 388              		.align	2
 389              		.global	handleByteReceived
 390              		.thumb
 391              		.thumb_func
 392              		.type	handleByteReceived, %function
 393              	handleByteReceived:
 394              	.LFB67:
  89:main.c        ****     switch(byteReceived)
 395              		.loc 1 89 0
 396              		.cfi_startproc
 397              		@ args = 0, pretend = 0, frame = 0
 398              		@ frame_needed = 0, uses_anonymous_args = 0
 399              	.LVL25:
 400 0000 08B5     		push	{r3, lr}
 401              		.cfi_def_cfa_offset 8
 402              		.cfi_offset 3, -8
 403              		.cfi_offset 14, -4
  90:main.c        ****     {
 404              		.loc 1 90 0
 405 0002 3228     		cmp	r0, #50
 406 0004 13D0     		beq	.L40
 407 0006 04D8     		bhi	.L41
 408 0008 3028     		cmp	r0, #48
ARM GAS  C:\Users\chris\AppData\Local\Temp\ccH2wpqK.s 			page 12


 409 000a 13D0     		beq	.L42
 410 000c 3128     		cmp	r0, #49
 411 000e 0BD0     		beq	.L43
 412 0010 08BD     		pop	{r3, pc}
 413              	.L41:
 414 0012 7128     		cmp	r0, #113
 415 0014 02D0     		beq	.L44
 416 0016 7728     		cmp	r0, #119
 417 0018 03D0     		beq	.L45
 418 001a 08BD     		pop	{r3, pc}
 419              	.L44:
  94:main.c        ****         }
 420              		.loc 1 94 0
 421 001c FFF7FEFF 		bl	decreaseSpeed
 422              	.LVL26:
  96:main.c        ****         case 'w' :
 423              		.loc 1 96 0
 424 0020 08BD     		pop	{r3, pc}
 425              	.LVL27:
 426              	.L45:
  99:main.c        ****         }
 427              		.loc 1 99 0
 428 0022 FFF7FEFF 		bl	increaseSpeed
 429              	.LVL28:
 101:main.c        ****         case '1' :
 430              		.loc 1 101 0
 431 0026 08BD     		pop	{r3, pc}
 432              	.LVL29:
 433              	.L43:
 104:main.c        ****         }
 434              		.loc 1 104 0
 435 0028 FFF7FEFF 		bl	driveForwards
 436              	.LVL30:
 106:main.c        ****         case '2' :
 437              		.loc 1 106 0
 438 002c 08BD     		pop	{r3, pc}
 439              	.LVL31:
 440              	.L40:
 109:main.c        ****         }
 441              		.loc 1 109 0
 442 002e FFF7FEFF 		bl	driveBackwards
 443              	.LVL32:
 111:main.c        ****         case '0' :
 444              		.loc 1 111 0
 445 0032 08BD     		pop	{r3, pc}
 446              	.LVL33:
 447              	.L42:
 114:main.c        ****             
 448              		.loc 1 114 0
 449 0034 FFF7FEFF 		bl	stop
 450              	.LVL34:
 451 0038 08BD     		pop	{r3, pc}
 452              		.cfi_endproc
 453              	.LFE67:
 454              		.size	handleByteReceived, .-handleByteReceived
 455 003a 00BF     		.section	.text.ISR_UART_rx_handler,"ax",%progbits
 456              		.align	2
ARM GAS  C:\Users\chris\AppData\Local\Temp\ccH2wpqK.s 			page 13


 457              		.global	ISR_UART_rx_handler
 458              		.thumb
 459              		.thumb_func
 460              		.type	ISR_UART_rx_handler, %function
 461              	ISR_UART_rx_handler:
 462              	.LFB66:
  74:main.c        **** 	//Read char from RX buffer and react
 463              		.loc 1 74 0
 464              		.cfi_startproc
 465              		@ args = 0, pretend = 0, frame = 0
 466              		@ frame_needed = 0, uses_anonymous_args = 0
 467 0000 38B5     		push	{r3, r4, r5, lr}
 468              		.cfi_def_cfa_offset 16
 469              		.cfi_offset 3, -16
 470              		.cfi_offset 4, -12
 471              		.cfi_offset 5, -8
 472              		.cfi_offset 14, -4
  76:main.c        ****     while (bytesToRead > 0)
 473              		.loc 1 76 0
 474 0002 FFF7FEFF 		bl	UART_1_GetRxBufferSize
 475              	.LVL35:
 476 0006 0446     		mov	r4, r0
 477              	.LVL36:
  77:main.c        ****     {
 478              		.loc 1 77 0
 479 0008 09E0     		b	.L48
 480              	.L49:
 481              	.LBB2:
  79:main.c        ****         UART_1_WriteTxData(byteReceived); // echo back
 482              		.loc 1 79 0
 483 000a FFF7FEFF 		bl	UART_1_ReadRxData
 484              	.LVL37:
 485 000e 0546     		mov	r5, r0
 486              	.LVL38:
  80:main.c        ****         
 487              		.loc 1 80 0
 488 0010 FFF7FEFF 		bl	UART_1_WriteTxData
 489              	.LVL39:
  82:main.c        ****         
 490              		.loc 1 82 0
 491 0014 2846     		mov	r0, r5
 492 0016 FFF7FEFF 		bl	handleByteReceived
 493              	.LVL40:
  84:main.c        ****     }
 494              		.loc 1 84 0
 495 001a 013C     		subs	r4, r4, #1
 496              	.LVL41:
 497 001c E4B2     		uxtb	r4, r4
 498              	.LVL42:
 499              	.L48:
 500              	.LBE2:
  77:main.c        ****     {
 501              		.loc 1 77 0
 502 001e 002C     		cmp	r4, #0
 503 0020 F3D1     		bne	.L49
  86:main.c        **** 
 504              		.loc 1 86 0
ARM GAS  C:\Users\chris\AppData\Local\Temp\ccH2wpqK.s 			page 14


 505 0022 38BD     		pop	{r3, r4, r5, pc}
 506              		.cfi_endproc
 507              	.LFE66:
 508              		.size	ISR_UART_rx_handler, .-ISR_UART_rx_handler
 509              		.section	.text.main,"ax",%progbits
 510              		.align	2
 511              		.global	main
 512              		.thumb
 513              		.thumb_func
 514              		.type	main, %function
 515              	main:
 516              	.LFB73:
 218:main.c        **** }
 219:main.c        **** 
 220:main.c        **** int main(void)
 221:main.c        **** {
 517              		.loc 1 221 0
 518              		.cfi_startproc
 519              		@ args = 0, pretend = 0, frame = 104
 520              		@ frame_needed = 0, uses_anonymous_args = 0
 521 0000 00B5     		push	{lr}
 522              		.cfi_def_cfa_offset 4
 523              		.cfi_offset 14, -4
 524 0002 9BB0     		sub	sp, sp, #108
 525              		.cfi_def_cfa_offset 112
 222:main.c        ****     CyGlobalIntEnable; /* Enable global interrupts. */
 526              		.loc 1 222 0
 527              		.syntax unified
 528              	@ 222 "main.c" 1
 529 0004 62B6     		CPSIE   i
 530              	@ 0 "" 2
 223:main.c        ****     /* Place your initialization/startup code here (e.g. MyInst_Start()) */
 224:main.c        ****     isr_uart_rx_StartEx(ISR_UART_rx_handler);
 531              		.loc 1 224 0
 532              		.thumb
 533              		.syntax unified
 534 0006 3448     		ldr	r0, .L57
 535 0008 FFF7FEFF 		bl	isr_uart_rx_StartEx
 536              	.LVL43:
 225:main.c        ****     isr_1_StartEx(sensor_ISR);
 537              		.loc 1 225 0
 538 000c 3348     		ldr	r0, .L57+4
 539 000e FFF7FEFF 		bl	isr_1_StartEx
 540              	.LVL44:
 226:main.c        ****     UART_1_Start();
 541              		.loc 1 226 0
 542 0012 FFF7FEFF 		bl	UART_1_Start
 543              	.LVL45:
 227:main.c        ****     SPI_Slave_Start();
 544              		.loc 1 227 0
 545 0016 FFF7FEFF 		bl	SPI_Slave_Start
 546              	.LVL46:
 228:main.c        ****     PWM_M1_Start();    //PWM Motor1 (1hjul)
 547              		.loc 1 228 0
 548 001a FFF7FEFF 		bl	PWM_M1_Start
 549              	.LVL47:
 229:main.c        ****     PWM_M2_Start();    //PWM Motor1 (1hjul)
ARM GAS  C:\Users\chris\AppData\Local\Temp\ccH2wpqK.s 			page 15


 550              		.loc 1 229 0
 551 001e FFF7FEFF 		bl	PWM_M2_Start
 552              	.LVL48:
 230:main.c        ****     //PWM_M3_Start();   //PWM Motor2 (2jhul)
 231:main.c        ****     //PWM_M4_Start();   //PWM Motor2 (2hjul)
 232:main.c        ****     //Pin_1_S_Read();    //Sensor 2
 233:main.c        ****     //Pin_2_S_Read();    //Sensor 1
 234:main.c        ****     ISR_SPI_StartEx(ISR_SPI);
 553              		.loc 1 234 0
 554 0022 2F48     		ldr	r0, .L57+8
 555 0024 FFF7FEFF 		bl	ISR_SPI_StartEx
 556              	.LVL49:
 235:main.c        ****     
 236:main.c        ****     
 237:main.c        ****     
 238:main.c        ****     UART_1_PutString("DC-Motor-PWM application started\r\n");
 557              		.loc 1 238 0
 558 0028 2E48     		ldr	r0, .L57+12
 559 002a FFF7FEFF 		bl	UART_1_PutString
 560              	.LVL50:
 239:main.c        ****     UART_1_PutString("0: Stop\r\n");
 561              		.loc 1 239 0
 562 002e 2E48     		ldr	r0, .L57+16
 563 0030 FFF7FEFF 		bl	UART_1_PutString
 564              	.LVL51:
 240:main.c        ****     UART_1_PutString("1: Drive forwards\r\n");
 565              		.loc 1 240 0
 566 0034 2D48     		ldr	r0, .L57+20
 567 0036 FFF7FEFF 		bl	UART_1_PutString
 568              	.LVL52:
 241:main.c        ****     UART_1_PutString("2: Drive backwards\r\n");
 569              		.loc 1 241 0
 570 003a 2D48     		ldr	r0, .L57+24
 571 003c FFF7FEFF 		bl	UART_1_PutString
 572              	.LVL53:
 242:main.c        ****     UART_1_PutString("q: Decrease speed\r\n");
 573              		.loc 1 242 0
 574 0040 2C48     		ldr	r0, .L57+28
 575 0042 FFF7FEFF 		bl	UART_1_PutString
 576              	.LVL54:
 243:main.c        ****     UART_1_PutString("w: Increase speed\r\n");
 577              		.loc 1 243 0
 578 0046 2C48     		ldr	r0, .L57+32
 579 0048 FFF7FEFF 		bl	UART_1_PutString
 580              	.LVL55:
 581              	.L55:
 244:main.c        **** 
 245:main.c        ****     for(;;)
 246:main.c        ****     {
 247:main.c        ****         //If and interrupt has occurred
 248:main.c        ****         if(intFlag == 1)
 582              		.loc 1 248 0
 583 004c 2B4B     		ldr	r3, .L57+36
 584 004e 5B78     		ldrb	r3, [r3, #1]	@ zero_extendqisi2
 585 0050 DBB2     		uxtb	r3, r3
 586 0052 012B     		cmp	r3, #1
 587 0054 0BD1     		bne	.L52
ARM GAS  C:\Users\chris\AppData\Local\Temp\ccH2wpqK.s 			page 16


 588              	.LBB3:
 249:main.c        ****         {
 250:main.c        ****             intFlag = 0; //Reset to next interrupt
 589              		.loc 1 250 0
 590 0056 294B     		ldr	r3, .L57+36
 591 0058 0022     		movs	r2, #0
 592 005a 5A70     		strb	r2, [r3, #1]
 251:main.c        ****             char test[100];
 252:main.c        ****           //Looking at what is recevied
 253:main.c        ****             snprintf(test,100," Den sendte integer er: %d\r\n",received );
 593              		.loc 1 253 0
 594 005c 1B78     		ldrb	r3, [r3]	@ zero_extendqisi2
 595 005e 284A     		ldr	r2, .L57+40
 596 0060 6421     		movs	r1, #100
 597 0062 01A8     		add	r0, sp, #4
 598 0064 FFF7FEFF 		bl	snprintf
 599              	.LVL56:
 254:main.c        ****             UART_1_PutString(test); 
 600              		.loc 1 254 0
 601 0068 01A8     		add	r0, sp, #4
 602 006a FFF7FEFF 		bl	UART_1_PutString
 603              	.LVL57:
 604              	.L52:
 605              	.LBE3:
 255:main.c        ****             
 256:main.c        ****        
 257:main.c        ****         }
 258:main.c        ****         
 259:main.c        ****         if(turn == LEFT)
 606              		.loc 1 259 0
 607 006e 234B     		ldr	r3, .L57+36
 608 0070 DB78     		ldrb	r3, [r3, #3]	@ zero_extendqisi2
 609 0072 012B     		cmp	r3, #1
 610 0074 15D1     		bne	.L53
 260:main.c        ****         {
 261:main.c        ****             UART_1_PutString("Venstre sensor\r\n");
 611              		.loc 1 261 0
 612 0076 2348     		ldr	r0, .L57+44
 613 0078 FFF7FEFF 		bl	UART_1_PutString
 614              	.LVL58:
 262:main.c        ****             
 263:main.c        ****             CyDelay(50);
 615              		.loc 1 263 0
 616 007c 3220     		movs	r0, #50
 617 007e FFF7FEFF 		bl	CyDelay
 618              	.LVL59:
 264:main.c        ****             UART_1_PutString("Venstre sensor gennemfoert\r\n");
 619              		.loc 1 264 0
 620 0082 2148     		ldr	r0, .L57+48
 621 0084 FFF7FEFF 		bl	UART_1_PutString
 622              	.LVL60:
 265:main.c        ****             //turnRight();
 266:main.c        ****             CyDelay(500);
 623              		.loc 1 266 0
 624 0088 4FF4FA70 		mov	r0, #500
 625 008c FFF7FEFF 		bl	CyDelay
 626              	.LVL61:
ARM GAS  C:\Users\chris\AppData\Local\Temp\ccH2wpqK.s 			page 17


 267:main.c        ****             flag = 0;
 627              		.loc 1 267 0
 628 0090 0022     		movs	r2, #0
 629 0092 1A4B     		ldr	r3, .L57+36
 630 0094 9A70     		strb	r2, [r3, #2]
 268:main.c        ****             UART_1_PutString("Interrupt reset\r\n");    
 631              		.loc 1 268 0
 632 0096 1D48     		ldr	r0, .L57+52
 633 0098 FFF7FEFF 		bl	UART_1_PutString
 634              	.LVL62:
 269:main.c        ****             Pin_1_ClearInterrupt();
 635              		.loc 1 269 0
 636 009c FFF7FEFF 		bl	Pin_1_ClearInterrupt
 637              	.LVL63:
 638 00a0 16E0     		b	.L54
 639              	.L53:
 270:main.c        ****             
 271:main.c        ****             
 272:main.c        ****         } 
 273:main.c        ****         else if(turn == RIGHT)
 640              		.loc 1 273 0
 641 00a2 022B     		cmp	r3, #2
 642 00a4 14D1     		bne	.L54
 274:main.c        ****         {
 275:main.c        ****             UART_1_PutString("Hoejre sensor\r\n");           
 643              		.loc 1 275 0
 644 00a6 1A48     		ldr	r0, .L57+56
 645 00a8 FFF7FEFF 		bl	UART_1_PutString
 646              	.LVL64:
 276:main.c        ****             
 277:main.c        ****             CyDelay(50);
 647              		.loc 1 277 0
 648 00ac 3220     		movs	r0, #50
 649 00ae FFF7FEFF 		bl	CyDelay
 650              	.LVL65:
 278:main.c        ****             UART_1_PutString("Hoejre sensor gennemfoert\r\n");
 651              		.loc 1 278 0
 652 00b2 1848     		ldr	r0, .L57+60
 653 00b4 FFF7FEFF 		bl	UART_1_PutString
 654              	.LVL66:
 279:main.c        ****             
 280:main.c        ****             //turnLeft();
 281:main.c        ****             CyDelay(500);
 655              		.loc 1 281 0
 656 00b8 4FF4FA70 		mov	r0, #500
 657 00bc FFF7FEFF 		bl	CyDelay
 658              	.LVL67:
 282:main.c        ****             flag = 0;
 659              		.loc 1 282 0
 660 00c0 0022     		movs	r2, #0
 661 00c2 0E4B     		ldr	r3, .L57+36
 662 00c4 9A70     		strb	r2, [r3, #2]
 283:main.c        ****             UART_1_PutString("Interrupt reset\r\n");    
 663              		.loc 1 283 0
 664 00c6 1148     		ldr	r0, .L57+52
 665 00c8 FFF7FEFF 		bl	UART_1_PutString
 666              	.LVL68:
ARM GAS  C:\Users\chris\AppData\Local\Temp\ccH2wpqK.s 			page 18


 284:main.c        ****             Pin_1_ClearInterrupt();
 667              		.loc 1 284 0
 668 00cc FFF7FEFF 		bl	Pin_1_ClearInterrupt
 669              	.LVL69:
 670              	.L54:
 285:main.c        ****         }
 286:main.c        ****         turn = 0;
 671              		.loc 1 286 0
 672 00d0 0022     		movs	r2, #0
 673 00d2 0A4B     		ldr	r3, .L57+36
 674 00d4 DA70     		strb	r2, [r3, #3]
 287:main.c        ****         //SPI_Slave_WriteTxData('5');
 288:main.c        ****         //CyDelay(300);
 289:main.c        ****         
 290:main.c        ****         
 291:main.c        ****     }
 675              		.loc 1 291 0
 676 00d6 B9E7     		b	.L55
 677              	.L58:
 678              		.align	2
 679              	.L57:
 680 00d8 00000000 		.word	ISR_UART_rx_handler
 681 00dc 00000000 		.word	sensor_ISR
 682 00e0 00000000 		.word	ISR_SPI
 683 00e4 80000000 		.word	.LC6
 684 00e8 A4000000 		.word	.LC7
 685 00ec B0000000 		.word	.LC8
 686 00f0 C4000000 		.word	.LC9
 687 00f4 DC000000 		.word	.LC10
 688 00f8 F0000000 		.word	.LC11
 689 00fc 00000000 		.word	.LANCHOR0
 690 0100 04010000 		.word	.LC12
 691 0104 24010000 		.word	.LC13
 692 0108 38010000 		.word	.LC14
 693 010c 58010000 		.word	.LC15
 694 0110 6C010000 		.word	.LC16
 695 0114 7C010000 		.word	.LC17
 696              		.cfi_endproc
 697              	.LFE73:
 698              		.size	main, .-main
 699              		.global	forward
 700              		.global	intFlag
 701              		.global	received
 702              		.global	sensor
 703              		.global	backtimer
 704              		.global	turnspeed
 705              		.global	speed
 706              		.data
 707              		.align	2
 708              		.set	.LANCHOR1,. + 0
 709              		.type	speed, %object
 710              		.size	speed, 1
 711              	speed:
 712 0000 32       		.byte	50
 713              		.type	forward, %object
 714              		.size	forward, 1
 715              	forward:
ARM GAS  C:\Users\chris\AppData\Local\Temp\ccH2wpqK.s 			page 19


 716 0001 01       		.byte	1
 717 0002 0000     		.space	2
 718              		.type	backtimer, %object
 719              		.size	backtimer, 4
 720              	backtimer:
 721 0004 F4010000 		.word	500
 722              		.type	turnspeed, %object
 723              		.size	turnspeed, 4
 724              	turnspeed:
 725 0008 2C010000 		.word	300
 726              		.section	.rodata.str1.4,"aMS",%progbits,1
 727              		.align	2
 728              	.LC0:
 729 0000 466C6167 		.ascii	"Flag bliver sat. Pin1\015\012\000"
 729      20626C69 
 729      76657220 
 729      7361742E 
 729      2050696E 
 730              	.LC1:
 731 0018 44656372 		.ascii	"Decreasing speed\015\012\000"
 731      65617369 
 731      6E672073 
 731      70656564 
 731      0D0A00
 732 002b 00       		.space	1
 733              	.LC2:
 734 002c 496E6372 		.ascii	"Increasing speed\015\012\000"
 734      65617369 
 734      6E672073 
 734      70656564 
 734      0D0A00
 735 003f 00       		.space	1
 736              	.LC3:
 737 0040 53657420 		.ascii	"Set direction: forwards\015\012\000"
 737      64697265 
 737      6374696F 
 737      6E3A2066 
 737      6F727761 
 738 005a 0000     		.space	2
 739              	.LC4:
 740 005c 53657420 		.ascii	"Set direction: backwards\015\012\000"
 740      64697265 
 740      6374696F 
 740      6E3A2062 
 740      61636B77 
 741 0077 00       		.space	1
 742              	.LC5:
 743 0078 53746F70 		.ascii	"Stop\015\012\000"
 743      0D0A00
 744 007f 00       		.space	1
 745              	.LC6:
 746 0080 44432D4D 		.ascii	"DC-Motor-PWM application started\015\012\000"
 746      6F746F72 
 746      2D50574D 
 746      20617070 
 746      6C696361 
 747 00a3 00       		.space	1
ARM GAS  C:\Users\chris\AppData\Local\Temp\ccH2wpqK.s 			page 20


 748              	.LC7:
 749 00a4 303A2053 		.ascii	"0: Stop\015\012\000"
 749      746F700D 
 749      0A00
 750 00ae 0000     		.space	2
 751              	.LC8:
 752 00b0 313A2044 		.ascii	"1: Drive forwards\015\012\000"
 752      72697665 
 752      20666F72 
 752      77617264 
 752      730D0A00 
 753              	.LC9:
 754 00c4 323A2044 		.ascii	"2: Drive backwards\015\012\000"
 754      72697665 
 754      20626163 
 754      6B776172 
 754      64730D0A 
 755 00d9 000000   		.space	3
 756              	.LC10:
 757 00dc 713A2044 		.ascii	"q: Decrease speed\015\012\000"
 757      65637265 
 757      61736520 
 757      73706565 
 757      640D0A00 
 758              	.LC11:
 759 00f0 773A2049 		.ascii	"w: Increase speed\015\012\000"
 759      6E637265 
 759      61736520 
 759      73706565 
 759      640D0A00 
 760              	.LC12:
 761 0104 2044656E 		.ascii	" Den sendte integer er: %d\015\012\000"
 761      2073656E 
 761      64746520 
 761      696E7465 
 761      67657220 
 762 0121 000000   		.space	3
 763              	.LC13:
 764 0124 56656E73 		.ascii	"Venstre sensor\015\012\000"
 764      74726520 
 764      73656E73 
 764      6F720D0A 
 764      00
 765 0135 000000   		.space	3
 766              	.LC14:
 767 0138 56656E73 		.ascii	"Venstre sensor gennemfoert\015\012\000"
 767      74726520 
 767      73656E73 
 767      6F722067 
 767      656E6E65 
 768 0155 000000   		.space	3
 769              	.LC15:
 770 0158 496E7465 		.ascii	"Interrupt reset\015\012\000"
 770      72727570 
 770      74207265 
 770      7365740D 
 770      0A00
ARM GAS  C:\Users\chris\AppData\Local\Temp\ccH2wpqK.s 			page 21


 771 016a 0000     		.space	2
 772              	.LC16:
 773 016c 486F656A 		.ascii	"Hoejre sensor\015\012\000"
 773      72652073 
 773      656E736F 
 773      720D0A00 
 774              	.LC17:
 775 017c 486F656A 		.ascii	"Hoejre sensor gennemfoert\015\012\000"
 775      72652073 
 775      656E736F 
 775      72206765 
 775      6E6E656D 
 776              		.bss
 777              		.set	.LANCHOR0,. + 0
 778              		.type	received, %object
 779              		.size	received, 1
 780              	received:
 781 0000 00       		.space	1
 782              		.type	intFlag, %object
 783              		.size	intFlag, 1
 784              	intFlag:
 785 0001 00       		.space	1
 786              		.type	flag, %object
 787              		.size	flag, 1
 788              	flag:
 789 0002 00       		.space	1
 790              		.type	turn, %object
 791              		.size	turn, 1
 792              	turn:
 793 0003 00       		.space	1
 794              		.type	sensor, %object
 795              		.size	sensor, 1
 796              	sensor:
 797 0004 00       		.space	1
 798              		.text
 799              	.Letext0:
 800              		.file 2 "c:\\program files (x86)\\cypress\\psoc creator\\4.1\\psoc creator\\import\\gnu\\arm\\5.4.
 801              		.file 3 "c:\\program files (x86)\\cypress\\psoc creator\\4.1\\psoc creator\\import\\gnu\\arm\\5.4.
 802              		.file 4 "Generated_Source\\PSoC5/cytypes.h"
 803              		.file 5 "c:\\program files (x86)\\cypress\\psoc creator\\4.1\\psoc creator\\import\\gnu\\arm\\5.4.
 804              		.file 6 "Generated_Source\\PSoC5/core_cm3.h"
 805              		.file 7 "Generated_Source\\PSoC5/SPI_Slave.h"
 806              		.file 8 "Generated_Source\\PSoC5/Pin_1.h"
 807              		.file 9 "Generated_Source\\PSoC5/UART_1.h"
 808              		.file 10 "Generated_Source\\PSoC5/CyLib.h"
 809              		.file 11 "Generated_Source\\PSoC5/PWM_M1.h"
 810              		.file 12 "Generated_Source\\PSoC5/PWM_M2.h"
 811              		.file 13 "c:\\program files (x86)\\cypress\\psoc creator\\4.1\\psoc creator\\import\\gnu\\arm\\5.4
 812              		.file 14 "Generated_Source\\PSoC5/isr_uart_rx.h"
 813              		.file 15 "Generated_Source\\PSoC5/isr_1.h"
 814              		.file 16 "Generated_Source\\PSoC5/ISR_SPI.h"